(lp0
(dp1
S'Jeyne'
p2
I0
sS'Luwin'
p3
I0
sS'Khal'
p4
I0
sS'Theon'
p5
I0
sS'Robert'
p6
I0
sS'Rodrik'
p7
I0
sS'Illyrio'
p8
I1
sS'Daenerys'
p9
I0
sS'White'
p10
I0
sS'Pentoshi'
p11
I0
sS'Robb'
p12
I0
sS'Wildling'
p13
I0
sS'Jorah'
p14
I0
sS'Bran'
p15
I0
sS'Waymar'
p16
I0
sS'Qotho'
p17
I0
sS'Sandor'
p18
I0
sS'Joffrey'
p19
I0
sS'Tyrion'
p20
I0
sS'Mago'
p21
I0
sS'Rickon'
p22
I0
sS'Jon'
p23
I0
sS'Maester'
p24
I0
sS'Mordane'
p25
I0
sS'Tommy'
p26
I0
sS'Will'
p27
I0
sS'Jaime'
p28
I0
sS'Arya'
p29
I2
sS'Viserys'
p30
I0
sS'Myrcella'
p31
I0
sS'Jory'
p32
I0
sS'Benjen'
p33
I0
sS'Drogo'
p34
I0
sS'Sansa'
p35
I0
sS'Eddard'
p36
I0
sS'Gared'
p37
I0
sS'Cersei'
p38
I0
sS'Hodor'
p39
I0
sS'Catelyn'
p40
I0
sS'Ros'
p41
I0
sS'Tommen'
p42
I0
sS'Mikken'
p43
I0
sa(dp44
g2
I0
sg3
I0
sg4
I0
sg5
I0
sS'Catspaw'
p45
I0
sg7
I0
sS'Rast'
p46
I0
sg39
I0
sg8
I1
sg9
I0
sg10
I0
sg11
I0
sg12
I0
sS'Jhiqui'
p47
I0
sg13
I0
sg14
I0
sg31
I0
sg16
I0
sg17
I0
sS'Mycah'
p48
I0
sg19
I0
sS'Irri'
p49
I0
sg18
I0
sg21
I0
sg22
I0
sg6
I0
sg23
I0
sg33
I0
sg25
I0
sg20
I0
sg26
I0
sg27
I0
sg28
I0
sS'Doreah'
p50
I0
sg29
I3
sg30
I0
sg15
I0
sg32
I0
sg24
I0
sg34
I0
sg35
I0
sg36
I0
sg37
I0
sg38
I0
sS'Lannister'
p51
I0
sg40
I0
sg41
I0
sg42
I0
sS'Ilyn'
p52
I0
sg43
I0
sa(dp53
g2
I0
sg14
I0
sg3
I0
sg4
I0
sS'Renly'
p54
I0
sg45
I0
sS'Grand'
p55
I0
sS'Royal'
p56
I0
sS"King's"
p57
I0
sg7
I0
sg46
I0
sS'Yoren'
p58
I0
sS'Pypar'
p59
I0
sg9
I0
sg10
I0
sg15
I0
sg11
I0
sg12
I0
sg8
I1
sS'Lancel'
p60
I0
sg47
I0
sg13
I0
sg5
I0
sS'Jeor'
p61
I0
sg31
I0
sg16
I0
sg17
I0
sg48
I0
sg19
I0
sg32
I0
sg49
I0
sg18
I0
sg21
I0
sg22
I0
sg6
I0
sg23
I0
sS'Petyr'
p62
I0
sg24
I0
sS'Barristan'
p63
I0
sS'Pycelle'
p64
I0
sg25
I0
sS'Varys'
p65
I0
sg26
I0
sg27
I0
sS'Alliser'
p66
I0
sS'Syrio'
p67
I0
sg28
I0
sg29
I3
sg30
I0
sS'Rakharo'
p68
I0
sg50
I0
sg42
I0
sg33
I0
sg34
I0
sg41
I0
sS'Old'
p69
I0
sS'Drunk'
p70
I0
sg36
I0
sg35
I0
sg37
I0
sg38
I0
sS'Grenn'
p71
I0
sg51
I0
sg39
I0
sg40
I0
sg20
I0
sS'Goldcloak'
p72
I0
sS'Aemon'
p73
I0
sg52
I0
sg43
I0
sa(dp74
g2
I0
sg35
I0
sg3
I0
sg4
I0
sg54
I0
sS'Willis'
p75
I0
sg59
I0
sS'Hugh'
p76
I0
sg57
I0
sg21
I0
sg7
I0
sg46
I0
sg39
I0
sg58
I0
sg55
I0
sg9
I0
sg10
I0
sg11
I0
sg12
I0
sg60
I0
sg47
I0
sg63
I0
sg33
I0
sg13
I0
sS'Samwell'
p77
I0
sg14
I0
sg61
I0
sg31
I0
sg16
I0
sg17
I0
sg48
I0
sS'Janos'
p78
I0
sg32
I0
sg49
I0
sg66
I0
sg19
I0
sg22
I0
sg45
I0
sg23
I0
sg62
I0
sS'Tobho'
p79
I0
sS'Masha'
p80
I0
sg56
I0
sS'Gendry'
p81
I0
sS'Knight'
p82
I0
sg25
I0
sS'Marillion'
p83
I0
sg34
I0
sS'Bronn'
p84
I0
sg26
I0
sg27
I0
sS'Kurleket'
p85
I0
sg5
I0
sg65
I0
sg67
I0
sg28
I0
sg50
I0
sg29
I3
sg30
I0
sg15
I0
sS'Gregor'
p86
I0
sg24
I0
sg68
I0
sg72
I0
sg8
I1
sg70
I0
sg69
I0
sg42
I0
sg64
I0
sg37
I0
sg38
I0
sg73
I0
sg71
I0
sg51
I0
sg18
I0
sg40
I0
sg20
I0
sg6
I0
sg41
I0
sg36
I0
sg52
I0
sg43
I0
sa(dp87
S'Barra'
p88
I0
sg58
I0
sg10
I0
sg47
I0
sg13
I0
sg16
I0
sg17
I0
sg21
I0
sg20
I0
sg6
I0
sg62
I0
sg60
I0
sg56
I0
sg83
I0
sg65
I0
sg85
I0
sg66
I1
sS'Robin'
p89
I0
sg32
I0
sS'Heward'
p90
I0
sg22
I0
sg36
I0
sg40
I0
sg43
I0
sg79
I0
sg45
I0
sg57
I0
sg46
I0
sg55
I0
sg12
I0
sS'Mord'
p91
I0
sg23
I0
sg61
I0
sg49
I0
sS'Loras'
p92
I0
sg80
I0
sg84
I0
sg68
I0
sg35
I0
sg38
I0
sg18
I0
sg72
I0
sg52
I0
sg75
I0
sg76
I0
sg7
I0
sS'Vardis'
p93
I0
sg11
I0
sS'Wyl'
p94
I0
sg14
I0
sg78
I0
sg33
I0
sg25
I0
sg26
I0
sg50
I0
sg15
I0
sg69
I0
sg37
I0
sg71
I0
sg39
I0
sg2
I0
sg3
I0
sg4
I0
sg54
I0
sg86
I0
sg8
I1
sS'Joss'
p95
I0
sg9
I0
sg77
I0
sS'Mhaegen'
p96
I0
sg48
I0
sg19
I0
sS'Lysa'
p97
I0
sg59
I0
sg63
I0
sg64
I0
sg81
I0
sg82
I0
sg27
I0
sg5
I0
sg67
I0
sg29
I4
sg30
I0
sg31
I0
sg24
I0
sg34
I0
sg41
I0
sg70
I0
sg42
I0
sg51
I0
sg28
I0
sg73
I1
sa(dp98
g88
I0
sg58
I0
sg10
I0
sg47
I0
sg13
I0
sg16
I0
sg17
I0
sg21
I0
sg20
I0
sg75
I0
sg62
I0
sg60
I0
sg56
I0
sg83
I0
sS'Beric'
p99
I0
sg85
I0
sg66
I1
sg89
I0
sg32
I0
sg90
I0
sg36
I0
sg23
I0
sg43
I0
sg79
I0
sg45
I0
sg57
I0
sg46
I0
sg55
I0
sg12
I0
sg91
I0
sg61
I0
sg49
I0
sg92
I0
sg40
I0
sg80
I0
sS'Eon'
p100
I0
sg84
I0
sg28
I0
sg68
I0
sg35
I0
sg38
I0
sg18
I0
sg72
I0
sg59
I0
sg52
I0
sg6
I0
sg76
I0
sg7
I0
sg93
I0
sS'Stiv'
p101
I0
sg11
I0
sg29
I4
sg14
I0
sS'Osha'
p102
I0
sg78
I0
sg24
I0
sg25
I0
sg26
I0
sg50
I0
sg15
I0
sS'Steffon'
p103
I0
sg69
I0
sg37
I0
sg71
I0
sg39
I0
sg2
I0
sg3
I0
sg4
I0
sg54
I0
sg86
I0
sg95
I0
sg8
I1
sg9
I0
sg77
I0
sg96
I0
sg48
I0
sg19
I0
sg97
I0
sg22
I0
sg63
I0
sg64
I0
sg81
I0
sg82
I0
sS'Wallen'
p104
I0
sS'Dothraki'
p105
I0
sg27
I0
sg5
I0
sg65
I0
sg67
I0
sg94
I0
sg30
I0
sg31
I0
sg33
I0
sg34
I0
sg41
I0
sg70
I0
sg42
I0
sg51
I0
sg73
I1
sa(dp106
g88
I0
sg58
I0
sg10
I0
sg92
I0
sg47
I0
sg13
I0
sS'Joby'
p107
I0
sg16
I0
sg17
I0
sg21
I0
sg20
I0
sS'Balian'
p108
I0
sg62
I0
sg60
I0
sg56
I0
sg83
I0
sg99
I0
sg85
I0
sg66
I1
sg89
I0
sg32
I0
sS'Jaremy'
p109
I0
sg90
I0
sS'Tywin'
p110
I0
sg36
I0
sg40
I0
sS'Rancer'
p111
I0
sg43
I0
sS'Little'
p112
I0
sg63
I0
sg45
I0
sg57
I0
sg46
I0
sg59
I0
sg12
I0
sg91
I0
sS'Vorkoy'
p113
I0
sg81
I0
sg61
I0
sg49
I1
sS'Wineseller'
p114
I0
sg23
I0
sg104
I0
sg80
I0
sg100
I0
sg84
I0
sg68
I0
sg8
I2
sg35
I0
sg38
I0
sS'Othell'
p115
I0
sg18
I0
sg6
I0
sg72
I0
sg52
I1
sg75
I0
sg76
I0
sS'Niko'
p116
I0
sg7
I0
sg93
I0
sg101
I0
sg11
I0
sS'Armeca'
p117
I0
sg94
I0
sg41
I0
sS'Toad'
p118
I0
sg14
I0
sg102
I0
sg78
I0
sg33
I0
sS"Night's"
p119
I0
sg25
I0
sS'Echiel'
p120
I0
sg26
I0
sS'Halder'
p121
I0
sg50
I0
sg15
I0
sg103
I0
sg69
I0
sg37
I0
sg71
I0
sg39
I0
sS'Gordo'
p122
I0
sg2
I0
sg3
I0
sg4
I0
sg54
I0
sS'Allo'
p123
I0
sg86
I0
sg55
I0
sg95
I0
sS'Matthar'
p124
I0
sg9
I0
sS'Luke'
p125
I0
sg77
I0
sg96
I0
sg48
I0
sg19
I0
sg97
I0
sg22
I0
sg79
I0
sg64
I0
sS'Escan'
p126
I0
sg82
I0
sS'Varly'
p127
I0
sg105
I0
sS'Tomard'
p128
I0
sg27
I0
sg5
I0
sg65
I0
sg67
I0
sg29
I4
sg30
I0
sg31
I0
sg24
I0
sg34
I0
sS'Mink'
p129
I0
sS'Nelugo'
p130
I0
sg70
I0
sg42
I0
sS'Dareon'
p131
I0
sg51
I0
sg28
I0
sg73
I1
sa(dp132
g88
I0
sg58
I0
sg10
I0
sS'Aron'
p133
I1
sg47
I0
sS'Othor'
p134
I0
sg13
I0
sg107
I0
sg16
I0
sg17
I0
sg21
I0
sg20
I0
sg108
I0
sg62
I0
sS'Vayon'
p135
I0
sS'Kevan'
p136
I0
sg76
I0
sg83
I0
sg99
I0
sg85
I0
sg66
I2
sS'Shagga'
p137
I0
sg89
I0
sg32
I0
sg109
I0
sS'Maege'
p138
I0
sg90
I0
sg110
I0
sg36
I0
sg92
I0
sg111
I0
sg43
I0
sg112
I0
sg79
I0
sg45
I0
sg57
I0
sg46
I0
sg59
I0
sg12
I0
sg91
I0
sS'Chella'
p139
I0
sg113
I0
sg126
I0
sg61
I0
sg49
I1
sg114
I0
sg23
I0
sg40
I0
sS'Mirri'
p140
I0
sg127
I0
sg80
I0
sg65
I0
sg100
I0
sg84
I0
sg28
I0
sg68
I0
sg35
I0
sg38
I0
sg115
I0
sg18
I0
sg6
I0
sg41
I0
sg52
I1
sS'Jafer'
p141
I0
sS'Meryn'
p142
I0
sg75
I0
sg56
I0
sg116
I0
sS'Greatjon'
p143
I0
sg7
I0
sg93
I0
sg101
I0
sg11
I0
sg117
I1
sg29
I5
sg118
I0
sg14
I0
sg102
I0
sg78
I0
sg24
I0
sg119
I0
sg25
I0
sg120
I0
sg26
I0
sg129
I0
sg121
I0
sg50
I0
sg15
I0
sg103
I0
sg69
I0
sg37
I0
sg71
I0
sg39
I0
sS'Galbart'
p144
I0
sg122
I0
sg2
I0
sg3
I0
sg4
I0
sg54
I0
sg123
I1
sg86
I0
sg55
I0
sg8
I2
sg124
I0
sg9
I0
sg60
I0
sg125
I0
sg77
I0
sg96
I0
sg48
I0
sg19
I0
sg97
I0
sg22
I0
sg63
I0
sg64
I0
sg81
I0
sg82
I0
sg104
I0
sg105
I0
sg128
I0
sg27
I0
sg5
I0
sS'Timett'
p145
I0
sg67
I0
sg94
I0
sg30
I0
sg31
I0
sg33
I0
sS'Gyles'
p146
I0
sg34
I0
sg72
I0
sg130
I0
sg70
I0
sg42
I0
sg131
I0
sg51
I0
sg95
I0
sg73
I2
sa(dp147
g88
I0
sg58
I0
sg10
I0
sg133
I1
sg47
I0
sg134
I0
sg13
I0
sg107
I0
sg16
I0
sg17
I0
sg21
I0
sg20
I0
sg108
I0
sg62
I0
sg49
I1
sg136
I0
sg76
I0
sg83
I0
sg99
I0
sg85
I0
sg66
I2
sg137
I0
sg89
I0
sg32
I0
sg109
I0
sg138
I0
sg90
I0
sg110
I0
sg36
I0
sS'Walder'
p148
I0
sS'Stevron'
p149
I0
sg40
I0
sg111
I0
sg43
I0
sg112
I0
sg63
I0
sg45
I0
sS'Shae'
p150
I0
sg57
I0
sg46
I0
sg59
I0
sg12
I0
sg91
I0
sg23
I0
sg139
I0
sg113
I0
sg81
I0
sg61
I0
sg135
I0
sg114
I0
sg92
I0
sg140
I0
sg104
I0
sg80
I0
sg100
I0
sg84
I0
sg68
I0
sg35
I0
sg38
I0
sg115
I0
sg18
I0
sg6
I0
sg41
I0
sS'Arwaya'
p151
I0
sg52
I1
sg145
I0
sg141
I0
sg142
I0
sg75
I0
sg56
I0
sg116
I0
sg143
I0
sg7
I0
sg93
I0
sg101
I0
sg11
I0
sg117
I1
sg94
I0
sg118
I0
sg14
I0
sg102
I0
sg78
I0
sg33
I0
sS'Ryger'
p152
I0
sg119
I0
sg25
I0
sg120
I0
sg26
I0
sg121
I0
sg50
I0
sg15
I0
sg103
I0
sg69
I0
sg72
I0
sg37
I0
sg71
I0
sg39
I0
sg144
I0
sg122
I0
sg2
I0
sg3
I0
sg4
I0
sg54
I0
sg123
I1
sg86
I0
sg55
I0
sg8
I2
sg124
I0
sg9
I0
sg60
I0
sg125
I0
sg77
I0
sg96
I0
sg48
I0
sg19
I0
sg97
I0
sg22
I0
sS'Joyeuse'
p153
I0
sg79
I0
sg64
I0
sg126
I0
sg82
I0
sg127
I0
sg105
I0
sg128
I0
sg27
I0
sg5
I0
sg65
I0
sg67
I0
sg29
I5
sg30
I0
sg31
I0
sg24
I0
sg146
I0
sg34
I0
sg129
I0
sg130
I0
sg70
I0
sg42
I0
sg131
I0
sg51
I0
sg28
I0
sg95
I0
sg73
I2
sa(dp154
g88
I0
sg58
I0
sg10
I0
sg133
I2
sg47
I0
sg134
I0
sg13
I0
sg107
I0
sg15
I0
sg16
I0
sg17
I0
sg21
I0
sg20
I0
sg108
I0
sg62
I0
sg135
I0
sg136
I0
sg56
I0
sg83
I0
sg99
I0
sg85
I0
sg66
I3
sg137
I0
sg89
I0
sg32
I0
sg109
I0
sg138
I0
sg90
I0
sS'Jaqen'
p155
I0
sg36
I0
sg148
I0
sg110
I0
sg149
I0
sg92
I0
sg111
I0
sg43
I0
sg112
I0
sS'Rorge'
p156
I0
sg79
I0
sg45
I0
sg150
I0
sg57
I0
sg46
I0
sg59
I0
sg12
I0
sg91
I0
sg139
I0
sg113
I0
sg126
I0
sg61
I0
sS'Rickard'
p157
I0
sg49
I1
sg114
I0
sg23
I0
sg40
I0
sg140
I0
sg127
I0
sg80
I0
sg65
I0
sg100
I0
sg84
I0
sg28
I0
sg68
I0
sg35
I0
sg38
I0
sg115
I0
sg18
I0
sg6
I0
sg41
I0
sg151
I1
sg52
I1
sg14
I0
sg142
I0
sg75
I0
sg76
I0
sg116
I0
sg143
I0
sg7
I0
sg93
I0
sg101
I0
sg11
I0
sS'Drogon'
p158
I0
sg29
I6
sg118
I0
sg141
I0
sg102
I0
sg78
I0
sS'Jonos'
p159
I0
sg24
I0
sg152
I0
sg119
I0
sg25
I0
sg120
I0
sg26
I0
sg129
I0
sg121
I0
sg50
I0
sS'Biter'
p160
I0
sg103
I0
sS'Viserion'
p161
I0
sg69
I0
sS'Lommy'
p162
I0
sg37
I0
sg71
I0
sg39
I0
sg144
I0
sg122
I0
sg2
I0
sg3
I0
sg4
I0
sg54
I0
sg123
I2
sg86
I0
sg55
I0
sS'Hot'
p163
I0
sg8
I2
sg124
I0
sg9
I0
sg60
I0
sg95
I0
sg125
I0
sg77
I0
sg96
I0
sg48
I0
sg19
I0
sg97
I0
sg22
I0
sg153
I0
sg63
I0
sg64
I0
sg81
I0
sg82
I0
sg104
I0
sg105
I0
sg128
I0
sg72
I0
sg27
I0
sg5
I0
sg145
I0
sg67
I0
sg94
I0
sg30
I0
sg31
I0
sS'Addam'
p164
I1
sg33
I0
sg146
I0
sg34
I0
sS'Rhaegal'
p165
I0
sg130
I0
sg70
I0
sg42
I0
sg131
I0
sg51
I0
sg117
I2
sg73
I3
sa(dp166
g88
I0
sg58
I0
sg10
I0
sg133
I2
sg47
I0
sg134
I0
sg13
I0
sg107
I0
sg160
I0
sg16
I0
sg17
I0
sg21
I0
sS'Matthos'
p167
I0
sg108
I0
sg62
I0
sS'Craster'
p168
I0
sg135
I0
sg136
I0
sg76
I0
sg83
I0
sg99
I0
sg85
I0
sg66
I3
sg137
I0
sg89
I0
sg32
I0
sg109
I0
sg143
I0
sS'Selyse'
p169
I0
sg138
I0
sg90
I0
sg155
I0
sg36
I0
sS'Melisandre'
p170
I0
sg148
I0
sg110
I0
sg149
I0
sg23
I0
sg111
I0
sg43
I0
sg112
I0
sg156
I0
sg63
I0
sg45
I0
sg93
I0
sg57
I0
sg46
I0
sg59
I0
sg12
I0
sg91
I0
sg139
I0
sg113
I0
sg81
I0
sg61
I0
sg157
I0
sg49
I1
sg114
I0
sg92
I0
sg40
I0
sg140
I0
sg104
I0
sg80
I0
sg100
I0
sg84
I0
sg75
I0
sg68
I0
sg35
I0
sg38
I0
sg115
I0
sg18
I0
sg41
I0
sg151
I1
sg52
I1
sg145
I0
sg141
I0
sg142
I0
sg6
I0
sg67
I0
sg56
I0
sg116
I0
sS'Gilly'
p171
I0
sg7
I0
sg150
I0
sg101
I0
sg11
I0
sg158
I0
sg94
I0
sg118
I0
sg14
I0
sg102
I0
sg78
I0
sS'Portan'
p172
I0
sg159
I0
sg33
I0
sS'Davos'
p173
I0
sg152
I0
sg119
I0
sS'Aggo'
p174
I0
sg20
I0
sg120
I0
sS'Eddison'
p175
I0
sg26
I0
sS'Dontos'
p176
I0
sg121
I0
sg50
I0
sg15
I0
sg103
I0
sg165
I0
sg161
I0
sg69
I0
sg162
I0
sg37
I0
sg71
I0
sg39
I0
sg144
I0
sg122
I0
sS'Stannis'
p177
I0
sg2
I0
sg3
I0
sg4
I0
sg54
I0
sg123
I2
sg86
I0
sg55
I0
sg117
I2
sg163
I0
sS'Cressen'
p178
I0
sg8
I2
sg124
I0
sg9
I0
sg60
I0
sS'Alton'
p179
I0
sg125
I0
sg77
I0
sg96
I0
sg48
I0
sg19
I0
sS'Kovarro'
p180
I0
sS'Eglantine'
p181
I0
sg22
I0
sg153
I0
sg79
I0
sg25
I0
sg64
I0
sg126
I0
sg82
I0
sS'Lothor'
p182
I0
sg127
I0
sg105
I0
sg128
I0
sg72
I0
sg27
I0
sg5
I0
sg97
I0
sg65
I0
sS'Daisy'
p183
I0
sg29
I6
sg30
I0
sg31
I0
sg164
I1
sg24
I0
sg146
I0
sg34
I0
sg129
I0
sg130
I0
sg70
I0
sg42
I0
sg131
I0
sg51
I0
sg28
I0
sg95
I0
sg73
I3
sa(dp184
S'Balon'
p185
I0
sg88
I0
sg58
I0
sg10
I0
sg133
I4
sg47
I0
sg134
I0
sg13
I0
sg107
I0
sg15
I0
sg16
I0
sg17
I0
sg21
I0
sg167
I0
sg108
I0
sg62
I0
sS'Yara'
p186
I0
sg168
I0
sg49
I1
sg136
I0
sg56
I0
sg83
I0
sg99
I0
sg85
I0
sg66
I5
sS'Gerard'
p187
I0
sg137
I0
sg89
I0
sg32
I0
sg109
I0
sg171
I0
sg169
I0
sg138
I0
sg90
I2
sg155
I0
sg36
I0
sg170
I0
sg148
I0
sg110
I0
sg149
I0
sg92
I0
sg111
I0
sg43
I0
sg112
I0
sg156
I0
sg79
I0
sg45
I0
sS'Tom'
p188
I0
sg57
I0
sg46
I0
sS'Andy'
p189
I2
sg59
I0
sg12
I0
sg91
I0
sg139
I0
sg113
I0
sg126
I0
sg61
I0
sg157
I0
sg39
I2
sg135
I0
sg114
I0
sg23
I0
sg40
I0
sg140
I0
sg127
I0
sg80
I0
sg65
I0
sg100
I0
sg84
I0
sg28
I0
sg68
I0
sg35
I0
sg38
I0
sg115
I0
sg18
I0
sg6
I0
sg41
I0
sg151
I3
sg52
I1
sg14
I0
sg142
I0
sg75
I0
sg183
I0
sg76
I2
sg116
I0
sg143
I0
sg7
I0
sg93
I0
sg101
I0
sg11
I0
sg158
I0
sg29
I8
sg118
I0
sg141
I0
sg102
I0
sg78
I0
sg172
I0
sg159
I0
sg24
I0
sg173
I0
sg152
I0
sg119
I0
sg174
I2
sg20
I0
sg120
I0
sg175
I0
sg26
I0
sg176
I0
sg129
I0
sg121
I2
sg50
I0
sg160
I0
sg103
I0
sg161
I0
sg69
I0
sg162
I0
sg37
I0
sg150
I0
sg71
I0
sS'Salladhor'
p190
I0
sg144
I0
sg122
I0
sg177
I0
sg2
I0
sg3
I0
sg4
I0
sg54
I0
sg123
I4
sg86
I0
sg55
I0
sg163
I2
sS"Captain's"
p191
I0
sg178
I0
sg8
I2
sg124
I0
sg9
I0
sg60
I0
sS'Podrick'
p192
I0
sg95
I0
sg179
I2
sg125
I0
sg77
I0
sg96
I0
sg48
I0
sg19
I0
sg180
I0
sg181
I0
sg22
I0
sg153
I0
sg63
I0
sg25
I0
sg64
I0
sg81
I0
sg82
I0
sg182
I0
sg104
I0
sg105
I0
sg128
I0
sg72
I0
sg27
I0
sg5
I0
sg97
I0
sg145
I0
sg67
I0
sg94
I0
sg30
I0
sg31
I0
sg164
I3
sg33
I0
sg146
I0
sg34
I0
sg165
I0
sg130
I0
sg70
I0
sg42
I0
sg131
I0
sg51
I0
sg117
I4
sg73
I5
sa(dp193
g185
I0
sg88
I0
sg58
I0
sg10
I0
sg133
I4
sg47
I0
sg134
I0
sg13
I0
sg107
I0
sg160
I0
sg16
I0
sg17
I0
sg21
I0
sg167
I0
sS'Margaery'
p194
I0
sg108
I0
sg62
I0
sg186
I0
sg168
I0
sg135
I0
sg136
I0
sg76
I4
sS'Polliver'
p195
I0
sg83
I0
sg99
I0
sg85
I0
sg66
I5
sS'Colen'
p196
I0
sg187
I0
sg137
I0
sg89
I0
sg32
I0
sg109
I0
sg143
I0
sg169
I0
sg138
I0
sg90
I4
sg110
I0
sg36
I0
sg170
I0
sg148
I0
sg155
I0
sg149
I0
sg23
I0
sg111
I0
sg43
I0
sg112
I0
sg156
I0
sg63
I0
sg45
I0
sg93
I0
sg57
I0
sg46
I0
sg189
I2
sg59
I0
sg12
I0
sg91
I0
sg139
I0
sg113
I0
sg81
I0
sg61
I0
sg157
I0
sg190
I0
sg49
I1
sg114
I0
sg92
I0
sg40
I0
sg140
I0
sg104
I0
sg80
I0
sg100
I0
sg84
I0
sg75
I0
sg68
I0
sg35
I0
sg38
I0
sg118
I0
sg115
I0
sg18
I0
sg41
I0
sg151
I3
sg52
I1
sg145
I0
sg141
I0
sg142
I0
sg6
I0
sg67
I0
sg56
I0
sg116
I0
sg171
I0
sg7
I0
sg188
I0
sg101
I0
sg11
I0
sg158
I0
sg94
I0
sS'Brienne'
p197
I0
sg14
I0
sg102
I0
sg78
I0
sg172
I0
sg159
I0
sg33
I0
sg173
I0
sg152
I0
sg119
I0
sg174
I2
sg20
I0
sg120
I0
sg175
I0
sg26
I0
sg176
I0
sg121
I4
sg50
I0
sg15
I0
sg103
I0
sg165
I0
sg161
I0
sg69
I0
sg162
I0
sg37
I0
sg150
I0
sg71
I0
sg39
I4
sg144
I0
sg122
I0
sg177
I0
sg2
I0
sg3
I0
sg4
I0
sg54
I0
sg123
I4
sg86
I0
sg55
I0
sg117
I4
sg163
I4
sg191
I0
sg178
I0
sg8
I2
sg124
I0
sg9
I0
sg60
I0
sg192
I0
sg179
I2
sg125
I0
sg77
I0
sS'Amory'
p198
I0
sg96
I0
sg48
I0
sg19
I0
sg180
I0
sg181
I0
sg22
I0
sg153
I0
sg79
I0
sg25
I0
sg64
I0
sg126
I0
sg82
I0
sg182
I0
sg127
I0
sg105
I0
sg128
I0
sg72
I0
sg27
I0
sg5
I0
sg97
I0
sg65
I0
sg183
I0
sg29
I8
sg30
I0
sg31
I0
sg164
I3
sg24
I0
sg146
I0
sg34
I0
sg129
I0
sg130
I0
sg70
I0
sg42
I0
sg131
I0
sg51
I0
sg28
I0
sg95
I0
sg73
I5
sa(dp199
g185
I0
sg88
I0
sg58
I0
sg10
I0
sg133
I5
sg47
I0
sg134
I0
sg13
I0
sg107
I0
sg15
I0
sg16
I0
sg17
I0
sg21
I0
sg167
I0
sg194
I0
sg108
I0
sg62
I0
sg186
I0
sg168
I0
sg49
I3
sg136
I0
sg56
I0
sg195
I0
sg83
I0
sg99
I0
sg85
I0
sg66
I6
sg196
I0
sg187
I0
sg137
I0
sg89
I0
sg32
I0
sg109
I0
sg171
I0
sg169
I0
sg138
I0
sg90
I4
sg110
I0
sg36
I0
sg170
I0
sg148
I0
sg155
I0
sg149
I0
sg92
I0
sg111
I0
sg43
I0
sg112
I0
sg156
I0
sg79
I0
sg45
I0
sg188
I0
sg57
I0
sg46
I0
sg189
I3
sg59
I0
sg12
I0
sg91
I0
sg139
I0
sg113
I0
sg126
I0
sg61
I0
sg157
I0
sg39
I4
sg135
I0
sg114
I0
sg23
I0
sg40
I0
sg140
I0
sg127
I0
sg80
I0
sg65
I0
sg100
I0
sg84
I0
sg28
I0
sg68
I0
sg35
I0
sg38
I0
sg197
I0
sg115
I0
sg18
I0
sg6
I0
sg41
I0
sg151
I4
sg52
I3
sg14
I0
sg142
I0
sg75
I0
sg183
I0
sg76
I4
sg116
I0
sg143
I0
sg7
I0
sg93
I0
sg101
I0
sg11
I0
sg158
I0
sg29
I9
sg118
I0
sg141
I0
sg102
I0
sg78
I0
sg172
I0
sg159
I0
sg24
I0
sg173
I0
sg152
I0
sg119
I0
sg174
I3
sg20
I0
sg120
I0
sg175
I0
sg26
I0
sg176
I0
sg129
I0
sg121
I4
sg50
I0
sg160
I0
sg103
I0
sg161
I0
sg69
I0
sg162
I0
sg37
I0
sg150
I0
sg71
I0
sg190
I0
sg144
I0
sg122
I0
sg177
I0
sg2
I0
sg3
I0
sg4
I0
sg54
I0
sg123
I5
sg86
I0
sg55
I0
sg163
I4
sg191
I0
sg178
I0
sg8
I4
sg124
I0
sg9
I0
sg60
I0
sg192
I0
sg95
I0
sg179
I3
sg125
I0
sg77
I0
sg198
I1
sg96
I0
sg48
I0
sg19
I0
sg180
I0
sg181
I0
sg22
I0
sg153
I0
sg63
I0
sg25
I0
sg64
I0
sg81
I0
sg82
I0
sg182
I0
sg104
I0
sg105
I0
sg128
I0
sg72
I0
sg27
I0
sg5
I0
sg97
I0
sg145
I0
sg67
I0
sg94
I0
sg30
I0
sg31
I0
sg164
I4
sg33
I0
sg146
I0
sg34
I0
sg165
I0
sg130
I0
sg70
I0
sg42
I0
sg131
I0
sg51
I0
sg117
I5
sg73
I6
sa(dp200
g185
I0
sg88
I0
sg58
I0
sg10
I0
sg133
I5
sg47
I0
sg134
I0
sg13
I0
sg107
I0
sg15
I0
sg16
I0
sg17
I0
sg21
I0
sg167
I0
sS'Robar'
p201
I0
sg194
I0
sS'Qhorin'
p202
I0
sg108
I0
sg62
I0
sg186
I0
sg168
I0
sg135
I0
sg136
I0
sg76
I6
sg195
I0
sg83
I0
sg99
I0
sg85
I0
sg66
I6
sg196
I0
sg187
I0
sg137
I0
sg89
I0
sg32
I0
sg109
I0
sg143
I0
sg169
I0
sS'Lorren'
p203
I0
sS'Drennan'
p204
I0
sg138
I0
sg90
I6
sg110
I0
sg36
I0
sg170
I0
sg148
I0
sg155
I0
sg149
I0
sg23
I0
sg111
I0
sg43
I0
sg112
I0
sg156
I0
sg63
I0
sg45
I0
sg93
I0
sg57
I0
sg46
I0
sg189
I3
sg59
I0
sg12
I0
sg91
I0
sg139
I0
sg113
I0
sg81
I0
sg61
I0
sg157
I0
sg190
I0
sg49
I3
sg82
I0
sg114
I0
sg92
I0
sg40
I0
sg140
I0
sg104
I0
sg80
I0
sg100
I0
sg84
I0
sg75
I0
sg68
I0
sg35
I0
sg38
I0
sg118
I0
sg115
I0
sg18
I0
sg41
I0
sg151
I4
sg52
I3
sg145
I0
sg26
I0
sg141
I0
sg142
I0
sg177
I0
sg6
I0
sg67
I0
sg56
I0
sg116
I0
sg171
I0
sg7
I0
sg160
I0
sg188
I0
sg101
I0
sg11
I0
sg158
I0
sg94
I0
sg197
I0
sg102
I0
sg14
I0
sS'Stonesnake'
p205
I0
sg78
I0
sg172
I0
sg51
I0
sg159
I0
sg33
I0
sg173
I0
sg152
I0
sg119
I0
sg174
I3
sg20
I0
sg120
I0
sg175
I0
sS'Borba'
p206
I0
sg176
I0
sg121
I6
sg50
I0
sS'Malakho'
p207
I0
sg103
I0
sg165
I0
sg161
I0
sg69
I0
sg162
I0
sg37
I0
sg150
I0
sg71
I0
sg39
I6
sg144
I0
sg122
I0
sg42
I0
sS'Emmon'
p208
I0
sg2
I0
sg3
I0
sg4
I0
sg54
I0
sg123
I5
sg86
I0
sg55
I0
sg117
I5
sg163
I6
sg191
I0
sg178
I0
sg8
I4
sg124
I0
sg9
I0
sg60
I0
sg192
I0
sg179
I3
sg125
I0
sg77
I0
sg198
I1
sS'Quaithe'
p209
I0
sg96
I0
sg48
I0
sg19
I0
sg180
I0
sg181
I0
sg22
I0
sg153
I0
sg79
I0
sg25
I0
sg64
I0
sg126
I0
sS'Reginald'
p210
I0
sg182
I0
sg127
I0
sg105
I0
sg128
I0
sg72
I0
sg27
I0
sg5
I0
sg97
I0
sg65
I0
sg183
I0
sg29
I9
sg30
I0
sg31
I0
sg164
I4
sg24
I0
sg146
I0
sg34
I0
sg129
I0
sg130
I0
sg70
I0
sS'Hallyne'
p211
I2
sg131
I0
sS'Dagmer'
p212
I0
sg28
I0
sg95
I0
sS'Harker'
p213
I2
sg73
I6
sa(dp214
g185
I0
sg210
I0
sS'Farlen'
p215
I0
sg88
I0
sg58
I0
sg10
I0
sg133
I7
sg47
I0
sg134
I0
sg13
I0
sg107
I0
sg160
I0
sg16
I0
sg17
I0
sg21
I0
sg167
I0
sg201
I0
sg194
I0
sg202
I0
sg108
I0
sg62
I0
sg186
I0
sg168
I0
sg49
I3
sg136
I0
sg56
I0
sg195
I0
sg83
I0
sg99
I0
sg85
I0
sg66
I8
sg196
I0
sg187
I0
sg137
I0
sg89
I0
sg32
I0
sg109
I0
sg143
I0
sg169
I0
sg203
I0
sg204
I0
sg138
I0
sg90
I8
sg110
I0
sg36
I0
sg170
I0
sg148
I0
sg155
I0
sg149
I0
sg92
I0
sg111
I0
sg43
I0
sg112
I0
sg156
I0
sg79
I0
sg45
I0
sg188
I0
sg57
I0
sg46
I0
sg189
I5
sg59
I0
sg12
I0
sg91
I0
sg139
I0
sg113
I0
sg126
I0
sg61
I0
sg157
I0
sg39
I8
sg135
I0
sg114
I0
sg23
I0
sg40
I0
sg140
I0
sg127
I0
sg80
I0
sg65
I0
sg100
I0
sg84
I0
sg28
I0
sg68
I0
sg35
I0
sg38
I0
sg197
I0
sg115
I0
sg18
I0
sg205
I0
sg6
I0
sg41
I0
sg151
I6
sg52
I3
sg14
I0
sg142
I0
sg208
I0
sg75
I0
sg183
I0
sg76
I8
sg116
I0
sS'Quent'
p216
I0
sg7
I0
sg93
I0
sg101
I0
sg11
I0
sg158
I0
sg29
I11
sg118
I0
sg141
I0
sg102
I0
sg78
I0
sg172
I0
sg171
I0
sg24
I0
sg173
I0
sg152
I0
sg119
I0
sg174
I5
sg20
I0
sg120
I0
sg175
I0
sg26
I0
sg176
I0
sg129
I0
sg121
I8
sg50
I0
sg15
I0
sg103
I0
sg161
I0
sg69
I0
sg162
I0
sg37
I0
sg150
I0
sg71
I0
sg190
I0
sg159
I0
sg144
I0
sS'Palla'
p217
I0
sg122
I0
sg211
I4
sg177
I0
sg2
I0
sS'Ygritte'
p218
I0
sg3
I0
sg4
I0
sg54
I0
sg123
I7
sg86
I0
sg55
I0
sg163
I8
sg191
I0
sg178
I0
sg8
I4
sg124
I0
sg9
I0
sg60
I0
sg206
I0
sg192
I0
sg95
I0
sg179
I5
sg125
I0
sg77
I0
sg198
I3
sg209
I0
sg96
I0
sg48
I0
sg19
I0
sg180
I0
sg181
I0
sg22
I0
sg153
I0
sg63
I0
sg25
I0
sg64
I0
sg81
I0
sg82
I0
sg182
I0
sg104
I0
sg105
I0
sg128
I0
sg72
I0
sg27
I0
sg5
I0
sg97
I0
sg145
I0
sg67
I0
sg94
I0
sg30
I0
sg31
I0
sg164
I6
sg33
I0
sg146
I0
sg34
I0
sg165
I0
sg207
I0
sg130
I0
sg70
I0
sg42
I0
sg131
I0
sS'High'
p219
I2
sg212
I0
sg51
I0
sg117
I7
sg213
I4
sg73
I8
sa(dp220
g185
I0
sg215
I0
sg88
I0
sg58
I0
sg10
I0
sg133
I7
sg47
I0
sg134
I0
sg13
I0
sg107
I0
sg15
I0
sg16
I0
sg17
I0
sg21
I1
sg167
I1
sg201
I0
sg194
I1
sg202
I0
sg108
I0
sg62
I0
sg186
I0
sg168
I0
sg135
I0
sg136
I0
sg76
I10
sg195
I0
sg83
I1
sg99
I0
sg85
I0
sg66
I8
sg196
I0
sg187
I0
sg137
I0
sg89
I0
sg32
I0
sg109
I0
sg216
I0
sg169
I0
sg203
I0
sg204
I0
sg138
I1
sg90
I10
sg110
I0
sg36
I0
sg170
I1
sg148
I0
sg155
I0
sg149
I0
sg23
I0
sg111
I0
sg43
I1
sg112
I0
sg156
I0
sg63
I0
sg45
I0
sg93
I0
sg57
I0
sg46
I0
sg189
I5
sg59
I0
sg12
I0
sg91
I1
sg139
I0
sg113
I0
sg81
I0
sg61
I0
sg157
I0
sg190
I0
sg49
I3
sg82
I0
sg114
I0
sg92
I0
sg40
I0
sg140
I1
sg104
I0
sg80
I1
sg100
I0
sg84
I0
sg75
I0
sg68
I0
sg35
I0
sg38
I0
sg118
I0
sg115
I0
sg18
I0
sg41
I0
sg151
I6
sg52
I3
sg145
I0
sg141
I0
sg142
I1
sg177
I0
sg6
I0
sg67
I0
sg56
I0
sg116
I0
sg143
I0
sg7
I0
sg188
I0
sg101
I0
sg11
I0
sg158
I0
sg94
I0
sg197
I0
sg102
I0
sg14
I0
sg205
I0
sg78
I0
sg172
I0
sg51
I0
sg171
I0
sg33
I0
sg173
I0
sg152
I0
sg119
I0
sg174
I5
sg20
I0
sg120
I0
sg175
I0
sg26
I0
sg176
I0
sg121
I10
sg50
I0
sg160
I0
sg103
I0
sg165
I0
sg161
I0
sg69
I0
sg162
I0
sg37
I0
sg150
I0
sg71
I0
sg39
I10
sg159
I0
sg144
I0
sg217
I0
sg122
I0
sg42
I0
sg208
I0
sg2
I0
sg218
I0
sg3
I0
sg4
I0
sg54
I0
sg123
I7
sg86
I0
sg55
I0
sg117
I7
sg163
I10
sg191
I0
sg178
I0
sg8
I4
sg124
I1
sg9
I0
sg60
I0
sg206
I0
sg192
I0
sg179
I5
sg125
I0
sg77
I0
sg198
I3
sg209
I0
sg96
I1
sg48
I1
sg19
I0
sg180
I0
sg181
I0
sg22
I0
sg153
I0
sg79
I0
sg25
I1
sg64
I0
sg126
I0
sg210
I0
sg182
I0
sg127
I0
sg105
I0
sg128
I0
sg72
I0
sg27
I0
sg5
I0
sg97
I0
sg65
I0
sg183
I0
sg29
I11
sg30
I0
sg31
I1
sg164
I6
sg24
I1
sg146
I0
sg34
I0
sg129
I1
sg207
I1
sg130
I0
sg70
I0
sg211
I6
sg131
I0
sg219
I4
sg212
I0
sg28
I0
sg95
I0
sg213
I6
sg73
I8
sa(dp221
g185
I0
sg210
I0
sg215
I0
sg88
I0
sg58
I0
sg10
I0
sg133
I7
sg47
I0
sg134
I0
sg13
I0
sg107
I0
sg160
I0
sg16
I0
sg17
I0
sg21
I1
sg167
I1
sg201
I0
sg194
I1
sg202
I0
sg108
I0
sg62
I0
sg186
I0
sg168
I0
sg49
I3
sg136
I0
sg56
I0
sg195
I0
sg83
I1
sg99
I0
sg85
I0
sg66
I8
sg196
I0
sg187
I0
sg137
I0
sg89
I0
sg32
I0
sg109
I0
sg143
I0
sg169
I0
sg203
I0
sg204
I0
sg138
I1
sg90
I12
sg110
I0
sg36
I0
sg170
I1
sg148
I0
sg155
I0
sg149
I0
sg92
I0
sg111
I0
sg43
I1
sg112
I0
sg156
I0
sg79
I0
sg45
I0
sg188
I0
sg57
I0
sg46
I0
sg189
I5
sg59
I0
sg12
I0
sg91
I1
sg139
I0
sg113
I0
sg126
I0
sg61
I0
sg157
I0
sg39
I12
sg135
I0
sg114
I0
sg23
I0
sg40
I0
sg140
I1
sg127
I0
sg80
I1
sg65
I0
sg100
I0
sg84
I0
sg28
I0
sg68
I0
sg35
I0
sg38
I0
sg9
I0
sg197
I0
sg115
I0
sg18
I0
sg205
I0
sg6
I0
sg41
I0
sg151
I6
sg52
I3
sg14
I0
sg142
I1
sg208
I0
sg75
I0
sg183
I0
sg76
I12
sg116
I0
sg216
I0
sg7
I0
sg93
I0
sg101
I0
sg11
I0
sg158
I0
sg29
I11
sg118
I0
sg141
I0
sg102
I0
sg78
I0
sg172
I0
sg171
I0
sg24
I1
sg173
I0
sg152
I0
sg119
I0
sg174
I5
sg20
I0
sg120
I0
sg175
I0
sg26
I0
sg176
I0
sg129
I1
sg121
I12
sg50
I0
sg15
I0
sg103
I0
sg161
I0
sg69
I0
sg162
I0
sg37
I0
sg150
I0
sg71
I0
sg190
I0
sg159
I0
sg144
I0
sg217
I0
sg122
I0
sg211
I8
sg177
I0
sg2
I0
sg218
I0
sg3
I0
sg4
I0
sg54
I0
sg123
I7
sg86
I0
sg55
I0
sg163
I12
sg191
I0
sg178
I0
sg8
I4
sg124
I1
sS'Lord'
p222
I0
sg60
I0
sg206
I0
sg192
I0
sg95
I0
sg179
I5
sg125
I0
sg77
I0
sg198
I3
sg209
I0
sg96
I1
sg48
I1
sg19
I0
sg180
I0
sg181
I0
sg22
I0
sg153
I0
sg63
I0
sg25
I1
sg64
I0
sg81
I0
sg82
I0
sg182
I0
sg104
I0
sg105
I0
sg128
I0
sg72
I0
sg27
I0
sg5
I0
sg97
I0
sg145
I0
sg67
I0
sg94
I0
sg30
I0
sg31
I1
sg164
I6
sg33
I0
sg146
I0
sg34
I0
sg165
I0
sg207
I1
sg130
I0
sg70
I0
sg42
I0
sg131
I0
sg219
I6
sg212
I0
sg51
I0
sg117
I7
sg213
I8
sg73
I8
sa(dp223
g185
I0
sg215
I0
sg88
I0
sg72
I0
sg58
I0
sg10
I0
sg133
I7
sg47
I0
sg134
I0
sg13
I0
sg107
I0
sg15
I0
sg16
I0
sg17
I0
sg21
I1
sg167
I1
sg201
I0
sg194
I1
sg202
I0
sg108
I0
sg62
I0
sg186
I0
sg168
I0
sg135
I0
sg136
I0
sg76
I12
sg195
I0
sg83
I1
sg99
I0
sg85
I0
sg66
I8
sg196
I0
sg187
I0
sg137
I0
sg89
I0
sg32
I0
sg109
I0
sg216
I0
sg169
I0
sg203
I0
sg204
I0
sg138
I1
sg90
I12
sg110
I0
sg36
I0
sg170
I1
sg148
I0
sg155
I0
sg149
I0
sg23
I0
sg111
I0
sg43
I1
sg112
I0
sg156
I0
sg63
I0
sg45
I0
sg93
I0
sg57
I0
sg46
I0
sg189
I5
sg59
I0
sg12
I0
sg91
I1
sg139
I0
sg113
I0
sg81
I0
sg61
I0
sg157
I0
sg190
I0
sg49
I3
sg82
I0
sg114
I0
sg92
I0
sg40
I0
sg140
I1
sg104
I0
sg80
I1
sg100
I0
sg84
I0
sg75
I0
sg68
I0
sg35
I0
sg38
I0
sg118
I0
sg115
I0
sg18
I0
sg41
I0
sg151
I6
sg52
I3
sg145
I0
sg222
I0
sg141
I0
sg142
I1
sg177
I0
sg6
I0
sg67
I0
sg56
I0
sg116
I0
sg143
I0
sg7
I0
sg188
I0
sg101
I0
sg11
I0
sg158
I0
sg94
I0
sg197
I0
sg102
I0
sg14
I0
sg205
I0
sg78
I0
sg172
I0
sg51
I0
sg171
I0
sg33
I0
sg173
I0
sg152
I0
sg119
I0
sg174
I5
sg20
I0
sg120
I0
sS'Imry'
p224
I0
sg26
I0
sg176
I0
sg121
I12
sg50
I0
sg160
I0
sg103
I0
sg165
I0
sg161
I0
sg69
I0
sg162
I0
sg37
I0
sg150
I0
sg71
I0
sg39
I12
sg159
I0
sg144
I0
sg217
I0
sg122
I0
sg42
I0
sg208
I0
sg2
I0
sg218
I0
sg3
I0
sg4
I0
sg54
I0
sg123
I7
sg86
I0
sg55
I0
sg117
I7
sg163
I12
sg191
I0
sg178
I0
sg8
I4
sg124
I1
sg9
I0
sg60
I0
sg206
I0
sg192
I0
sg179
I5
sg125
I0
sS'Boros'
p225
I0
sg198
I3
sg209
I0
sg96
I1
sg48
I1
sg19
I0
sg180
I0
sg181
I0
sg22
I0
sg153
I0
sg79
I0
sg25
I1
sg64
I0
sg126
I0
sg210
I0
sg182
I0
sg127
I0
sg105
I0
sg128
I0
sg175
I0
sg27
I0
sg5
I0
sg97
I0
sg65
I0
sg183
I0
sg29
I11
sg30
I0
sg31
I1
sg164
I6
sg24
I1
sg146
I0
sg34
I0
sg129
I1
sg207
I1
sg130
I0
sg70
I0
sg211
I8
sg131
I0
sg73
I8
sg219
I6
sg212
I0
sg28
I0
sg95
I0
sg213
I8
sg77
I0
sa(dp226
g185
I0
sg210
I0
sg215
I0
sg88
I0
sg58
I0
sg10
I0
sg133
I7
sg47
I0
sg134
I0
sg13
I0
sg107
I0
sg160
I0
sg16
I0
sg17
I0
sg21
I1
sg167
I1
sS'Rhaego'
p227
I0
sg201
I0
sg194
I1
sg202
I0
sg108
I0
sg62
I0
sg186
I0
sg168
I0
sg49
I3
sg136
I0
sg56
I0
sg195
I0
sg83
I1
sg99
I0
sg85
I0
sg66
I8
sg196
I0
sg187
I0
sg137
I0
sg89
I0
sg32
I0
sg109
I0
sg143
I0
sg169
I0
sg203
I0
sg204
I0
sg138
I1
sg90
I14
sg110
I0
sg36
I0
sg170
I1
sg148
I0
sg155
I0
sg149
I0
sg92
I0
sg111
I0
sg43
I1
sg112
I0
sg156
I0
sg79
I0
sg45
I0
sg188
I0
sg57
I0
sg46
I0
sg189
I5
sg59
I0
sg12
I0
sg91
I1
sg139
I0
sg113
I0
sg126
I0
sg61
I0
sg157
I0
sg39
I14
sg135
I0
sg114
I0
sg23
I0
sg40
I0
sg140
I1
sg127
I0
sg80
I1
sg65
I0
sg100
I0
sg84
I0
sg28
I0
sg68
I0
sg77
I0
sg35
I0
sg38
I0
sg9
I0
sg197
I0
sg115
I0
sg18
I0
sg205
I0
sg6
I0
sg72
I0
sg151
I6
sg52
I3
sg14
I0
sg142
I1
sg208
I0
sg75
I0
sg183
I0
sg76
I14
sg116
I0
sg216
I0
sg7
I0
sg93
I0
sg101
I0
sg11
I0
sg158
I0
sg29
I11
sg118
I0
sg141
I0
sg102
I0
sg78
I0
sg172
I0
sg171
I0
sg24
I1
sg173
I0
sg152
I0
sg119
I0
sg174
I5
sg20
I0
sg120
I0
sg224
I0
sg26
I0
sS'Gelmarr'
p228
I0
sg129
I1
sS'Stygg'
p229
I0
sg121
I14
sg50
I0
sg15
I0
sg103
I0
sg165
I0
sg161
I0
sg69
I0
sg162
I0
sg70
I0
sg37
I0
sg150
I0
sg71
I0
sg190
I0
sg159
I0
sg144
I0
sg217
I0
sg122
I0
sg211
I10
sg177
I0
sg2
I0
sg218
I0
sg3
I0
sg4
I0
sg54
I0
sg123
I7
sg86
I0
sg55
I0
sg163
I14
sg191
I0
sg178
I0
sg8
I4
sg124
I1
sg222
I0
sg60
I0
sg206
I0
sg192
I0
sg95
I0
sg179
I5
sg125
I0
sg225
I0
sg198
I3
sg209
I0
sg96
I1
sg48
I1
sg19
I0
sg180
I0
sg181
I0
sg22
I0
sg153
I0
sg63
I0
sg25
I1
sg64
I0
sg81
I0
sg82
I0
sg182
I0
sg104
I0
sg105
I0
sg128
I0
sg175
I0
sg27
I0
sg5
I0
sg97
I0
sg145
I0
sg67
I0
sg94
I0
sg30
I0
sg31
I1
sg164
I6
sg33
I0
sg146
I0
sg34
I0
sg41
I0
sg207
I1
sg130
I0
sg176
I0
sg42
I0
sg131
I0
sg219
I8
sg212
I0
sg51
I0
sg117
I7
sg213
I10
sg73
I8
sa(dp230
g185
I0
sg215
I0
sg88
I0
sg58
I0
sg10
I0
sg133
I8
sg47
I0
sg134
I0
sg13
I0
sg107
I0
sg15
I0
sg16
I0
sg17
I0
sg21
I1
sg167
I1
sg227
I0
sg201
I0
sg194
I1
sg202
I0
sg108
I0
sg62
I0
sg186
I0
sS'Unidentified'
p231
I0
sg168
I0
sg135
I0
sg136
I0
sg76
I14
sg195
I0
sg83
I1
sg99
I0
sg85
I0
sg73
I9
sg66
I9
sg196
I0
sg187
I0
sg137
I0
sg89
I0
sg32
I0
sg109
I0
sg216
I0
sg169
I0
sg203
I0
sg204
I0
sg138
I1
sg90
I14
sg110
I0
sg36
I0
sg170
I1
sg148
I0
sg155
I0
sg149
I0
sg23
I0
sg111
I0
sg43
I1
sg112
I0
sg156
I0
sg63
I0
sg45
I0
sg93
I0
sg57
I0
sg46
I0
sg189
I6
sg59
I0
sg12
I0
sg91
I1
sS'Mance'
p232
I0
sg113
I0
sS'Kraznys'
p233
I0
sg61
I0
sg157
I0
sg190
I0
sS'Tormund'
p234
I0
sg49
I3
sg82
I0
sg114
I0
sg92
I0
sg40
I0
sg140
I1
sg104
I0
sg80
I1
sg30
I0
sg100
I0
sg84
I0
sg75
I0
sg68
I0
sg35
I0
sS'Orphan'
p235
I0
sg38
I0
sg118
I0
sg115
I0
sg18
I0
sS'Unsullied'
p236
I0
sS'Qyburn'
p237
I0
sg151
I7
sg52
I3
sg81
I0
sg222
I0
sS'Giant'
p238
I0
sg141
I0
sg142
I1
sg177
I0
sg6
I0
sg67
I0
sg56
I0
sg116
I0
sg143
I0
sg7
I0
sg188
I0
sg101
I0
sg11
I0
sg158
I0
sg94
I0
sg41
I0
sg197
I0
sg102
I0
sg14
I0
sg205
I0
sg78
I0
sg172
I0
sg51
I0
sg171
I0
sg33
I0
sg173
I0
sg152
I0
sg119
I0
sg174
I6
sg20
I0
sg120
I0
sg224
I0
sg26
I0
sg228
I0
sg129
I1
sg229
I0
sg121
I14
sg50
I0
sg160
I0
sg103
I0
sg165
I0
sg161
I0
sg69
I0
sg162
I0
sg37
I0
sg150
I0
sg71
I0
sg39
I14
sg159
I0
sg144
I0
sg217
I0
sg122
I0
sg42
I0
sS'Boat'
p239
I0
sg208
I0
sg2
I0
sg218
I0
sg3
I0
sg4
I0
sg54
I0
sg123
I8
sg86
I0
sg55
I0
sg117
I8
sg163
I14
sg191
I0
sg178
I0
sg8
I4
sg124
I1
sg9
I0
sg60
I0
sg206
I0
sg192
I0
sS'Mirelle'
p240
I0
sg179
I6
sg125
I0
sS"Margaery's"
p241
I0
sg198
I4
sg209
I0
sg145
I0
sg96
I1
sg48
I1
sg19
I0
sg180
I0
sg181
I0
sg22
I0
sg153
I0
sg79
I0
sg25
I1
sg64
I0
sg126
I0
sg210
I0
sg182
I0
sg127
I0
sg105
I0
sg128
I0
sg176
I0
sg175
I0
sg27
I0
sg5
I0
sg97
I0
sg65
I0
sg183
I0
sg29
I12
sS'Missandei'
p242
I0
sg31
I1
sg164
I7
sg139
I0
sg24
I1
sg146
I0
sg34
I0
sg72
I0
sg207
I1
sg130
I0
sg70
I0
sg211
I10
sg131
I0
sg225
I0
sg219
I8
sg212
I0
sg28
I0
sg95
I0
sg213
I10
sg77
I0
sa(dp243
g185
I0
sg210
I0
sg215
I0
sg88
I0
sg72
I0
sg58
I0
sg10
I0
sg133
I10
sg47
I0
sg134
I0
sg13
I0
sg206
I0
sg107
I0
sg160
I0
sg16
I0
sg17
I0
sg21
I1
sg167
I1
sg227
I0
sg201
I0
sg194
I1
sg202
I0
sg108
I0
sS'Ramsay'
p244
I0
sg186
I0
sg231
I0
sg168
I0
sg49
I3
sg136
I0
sg56
I0
sg195
I0
sg83
I1
sg99
I0
sg85
I0
sg191
I0
sg66
I11
sg196
I0
sg187
I0
sg69
I0
sg137
I0
sg89
I0
sg32
I0
sg109
I0
sg143
I0
sg169
I0
sg203
I0
sg204
I0
sg138
I1
sg90
I16
sg110
I0
sg36
I0
sg162
I0
sg170
I1
sg148
I0
sg155
I0
sg149
I0
sg92
I0
sg111
I0
sg43
I1
sg112
I0
sg156
I0
sg63
I0
sg45
I0
sg188
I0
sg57
I0
sg46
I0
sS'Master'
p245
I0
sg59
I0
sg12
I0
sg91
I1
sS'Thoros'
p246
I0
sg232
I0
sg113
I0
sg81
I0
sg61
I0
sg157
I0
sg79
I0
sg39
I16
sg234
I0
sg135
I0
sg114
I0
sg23
I0
sg40
I0
sg140
I1
sg127
I0
sg80
I1
sg65
I0
sg100
I0
sg84
I0
sg28
I0
sg68
I0
sg77
I0
sg35
I0
sg235
I0
sg38
I0
sg9
I0
sg197
I0
sg115
I0
sg18
I0
sg236
I0
sg205
I0
sg6
I0
sg237
I0
sg151
I9
sg52
I3
sg238
I0
sg14
I0
sg142
I1
sg208
I0
sS'Olenna'
p247
I0
sg75
I0
sg183
I0
sg76
I16
sg116
I0
sg216
I0
sg7
I0
sg93
I0
sg101
I0
sg11
I0
sg158
I0
sg29
I14
sg118
I0
sg126
I0
sg141
I0
sg102
I0
sg78
I0
sS'Meera'
p248
I0
sg172
I0
sg171
I0
sg24
I1
sg173
I0
sg152
I0
sg119
I0
sg174
I8
sg20
I0
sg120
I0
sg224
I0
sg26
I0
sg228
I0
sg129
I1
sg229
I0
sg121
I16
sg50
I0
sg15
I0
sg103
I0
sg165
I0
sg161
I0
sS'Tyrell'
p249
I0
sS'Locke'
p250
I0
sg70
I0
sg37
I0
sg150
I0
sg71
I0
sg190
I0
sg159
I0
sg144
I0
sg217
I0
sg189
I8
sg122
I0
sg62
I0
sg211
I12
sg239
I0
sg177
I0
sg2
I0
sg218
I0
sg3
I0
sg4
I0
sg54
I0
sg123
I10
sg86
I0
sg55
I0
sg163
I16
sS'Anguy'
p251
I2
sg178
I0
sg8
I4
sg124
I1
sg222
I0
sg242
I0
sg60
I0
sS'Jojen'
p252
I0
sg192
I0
sS'Orell'
p253
I0
sg95
I0
sg179
I8
sg125
I0
sg241
I0
sg198
I6
sg209
I0
sg96
I1
sg48
I1
sg19
I0
sg180
I0
sg181
I0
sg22
I0
sg153
I0
sS'Riverrun'
p254
I0
sg25
I1
sg64
I0
sg233
I0
sg82
I0
sg182
I0
sg104
I0
sg105
I0
sg128
I0
sg175
I0
sg27
I0
sg139
I0
sg5
I0
sg97
I0
sg145
I0
sg67
I0
sg94
I0
sg30
I0
sg31
I1
sg164
I9
sg240
I0
sg33
I0
sg146
I0
sg34
I0
sg41
I0
sg207
I1
sg130
I0
sg176
I0
sg42
I0
sg131
I0
sg225
I0
sg219
I10
sg212
I0
sg51
I0
sg117
I10
sg213
I12
sg73
I11
sa(dp255
g185
I0
sg215
I0
sg88
I0
sg58
I0
sg237
I0
sS'Brynden'
p256
I0
sg10
I0
sg133
I10
sg47
I0
sg134
I0
sg13
I0
sg107
I0
sg15
I0
sg16
I0
sg17
I0
sg21
I1
sg254
I0
sg167
I1
sg227
I0
sg201
I0
sg194
I1
sg202
I0
sg108
I0
sg244
I0
sg186
I0
sg231
I0
sg191
I0
sg135
I0
sg136
I0
sg76
I16
sg195
I0
sg83
I1
sg99
I0
sg85
I0
sg73
I11
sg66
I11
sg196
I0
sg187
I0
sg249
I0
sg137
I0
sg89
I0
sg32
I0
sg109
I0
sg216
I0
sg169
I0
sg203
I0
sg204
I0
sg138
I1
sg90
I16
sg110
I0
sg36
I0
sg250
I0
sg170
I1
sg148
I0
sg155
I0
sg149
I0
sg23
I0
sg111
I0
sg43
I1
sg112
I0
sg156
I0
sg79
I0
sg45
I0
sg93
I0
sg57
I0
sg46
I0
sg245
I0
sg59
I0
sS'Genna'
p257
I0
sg175
I0
sg12
I0
sg91
I1
sg246
I0
sg232
I0
sg113
I0
sg126
I0
sg61
I0
sg157
I0
sS'Kayla'
p258
I0
sg190
I0
sg234
I0
sg49
I4
sg82
I0
sg114
I0
sg92
I0
sg40
I0
sS'Edmure'
p259
I0
sg140
I1
sg104
I0
sg80
I1
sg240
I0
sg30
I0
sg100
I0
sg84
I0
sg75
I0
sg68
I0
sS'Willem'
p260
I0
sS'Hoster'
p261
I0
sg233
I0
sg35
I0
sg235
I0
sg38
I0
sg118
I0
sg115
I0
sg18
I0
sg236
I0
sS"Craster's"
p262
I0
sg151
I9
sg52
I4
sg145
I0
sg222
I0
sg238
I0
sg141
I0
sg142
I1
sg177
I0
sg247
I0
sg6
I0
sg67
I0
sg56
I0
sg116
I0
sg143
I0
sg7
I0
sg188
I0
sg101
I0
sg11
I0
sg158
I0
sg94
I0
sg41
I0
sg197
I0
sg102
I0
sg14
I0
sg205
I0
sg78
I0
sg248
I0
sg172
I0
sg51
I0
sg171
I0
sg33
I0
sg173
I0
sg152
I0
sg119
I0
sg174
I8
sg20
I0
sg120
I0
sg224
I1
sg206
I0
sg228
I0
sg129
I1
sg229
I0
sg121
I16
sg50
I0
sS'Greizhen'
p263
I0
sg160
I0
sg103
I0
sg165
I0
sg251
I2
sg161
I0
sg69
I0
sg162
I0
sg70
I0
sg37
I0
sg150
I0
sg71
I0
sg39
I16
sg159
I0
sg144
I0
sg217
I0
sg189
I8
sg122
I0
sg62
I0
sS"Gilly's"
p264
I0
sg42
I0
sg239
I0
sg208
I0
sg2
I0
sg218
I0
sg3
I0
sg4
I0
sg54
I0
sg123
I10
sg86
I0
sg55
I0
sg117
I10
sg163
I16
sg168
I0
sg178
I0
sg8
I5
sg124
I1
sg9
I0
sg60
I0
sg252
I0
sg192
I0
sg253
I0
sg179
I8
sg125
I0
sg77
I0
sg198
I6
sg209
I0
sg96
I1
sg48
I1
sg19
I0
sg180
I0
sg181
I0
sg22
I0
sg153
I0
sg63
I0
sg25
I1
sg64
I0
sg81
I0
sg210
I0
sg182
I0
sg127
I0
sg105
I0
sg128
I0
sg176
I0
sS'Tortured'
p265
I0
sg27
I0
sg5
I0
sg97
I0
sg65
I0
sg183
I0
sg26
I0
sg29
I14
sg242
I0
sg31
I1
sg164
I9
sg139
I0
sg24
I1
sg146
I0
sg34
I0
sg72
I0
sg207
I1
sg130
I0
sS'Martyn'
p266
I0
sg211
I12
sg131
I0
sg225
I0
sg219
I10
sg212
I0
sg28
I0
sg95
I0
sg213
I12
sg241
I0
sS'Karl'
p267
I0
sa(dp268
g185
I0
sg210
I0
sg241
I0
sg215
I0
sg88
I0
sg72
I0
sg58
I0
sg256
I0
sg10
I0
sg133
I12
sS'Sorcerer'
p269
I0
sg47
I0
sg134
I0
sg13
I0
sg107
I0
sg160
I0
sg16
I0
sg17
I0
sg21
I1
sg167
I1
sg227
I0
sg201
I0
sg194
I1
sg202
I0
sg108
I0
sg244
I0
sg186
I0
sg231
I0
sg191
I0
sg49
I5
sg136
I0
sg56
I0
sg195
I0
sg83
I1
sg99
I0
sg85
I0
sg66
I13
sg196
I0
sg187
I0
sg69
I0
sg137
I0
sg89
I0
sg32
I0
sg109
I0
sg143
I0
sg169
I0
sg203
I0
sg204
I0
sg138
I1
sg90
I16
sg110
I0
sg36
I0
sg162
I0
sg170
I1
sg148
I0
sg155
I0
sg149
I0
sg92
I0
sg111
I0
sg43
I1
sg112
I0
sg156
I0
sg254
I0
sg45
I0
sg188
I0
sg57
I0
sg46
I0
sg245
I0
sg59
I0
sg257
I0
sg12
I0
sg91
I1
sg246
I0
sg232
I0
sg113
I0
sg233
I0
sg61
I0
sg157
I0
sg258
I0
sg39
I16
sg234
I0
sg135
I0
sg114
I0
sg23
I0
sg40
I0
sg259
I0
sg140
I1
sg127
I0
sg80
I1
sg65
I0
sg100
I0
sg84
I0
sg28
I0
sg265
I0
sg68
I0
sg260
I0
sg261
I0
sg35
I0
sg235
I0
sg38
I0
sg9
I0
sg197
I0
sg115
I0
sg18
I0
sg236
I0
sg205
I0
sg6
I0
sg237
I0
sg151
I11
sg52
I5
sg81
I0
sg238
I0
sg14
I0
sg142
I1
sg208
I0
sg247
I0
sg75
I0
sg183
I0
sg76
I16
sg116
I0
sg216
I0
sg7
I0
sg93
I0
sg101
I0
sg11
I0
sg158
I0
sg29
I16
sg41
I0
sg118
I0
sg242
I0
sg141
I0
sg102
I0
sg78
I0
sg248
I0
sg172
I0
sg171
I0
sg24
I1
sg173
I0
sg152
I0
sg119
I0
sg174
I10
sg20
I0
sg120
I0
sg175
I0
sg206
I0
sg228
I0
sg129
I1
sg229
I0
sg121
I16
sg50
I0
sg263
I0
sS'Bolton'
p270
I0
sg15
I0
sg103
I0
sg165
I0
sg161
I0
sg249
I0
sg250
I0
sg266
I0
sg37
I0
sg150
I0
sg71
I0
sg190
I0
sg159
I0
sg144
I0
sg217
I0
sg189
I10
sg122
I0
sg62
I0
sg264
I0
sg211
I12
sg239
I0
sg177
I0
sg2
I0
sg218
I0
sg3
I0
sg4
I0
sg54
I0
sg123
I12
sg86
I0
sg55
I0
sg163
I16
sg251
I4
sg178
I0
sg8
I6
sg124
I1
sg222
I0
sg63
I0
sg60
I0
sg252
I0
sg192
I0
sg240
I0
sg95
I0
sg179
I10
sg125
I0
sg77
I0
sg198
I8
sg209
I0
sg96
I1
sg48
I1
sg19
I0
sg180
I0
sg181
I0
sg22
I0
sg153
I0
sg79
I0
sg25
I1
sg64
I0
sg126
I0
sg82
I0
sg182
I0
sg104
I0
sg105
I0
sg128
I0
sg176
I0
sg224
I2
sg27
I0
sg139
I0
sg168
I0
sg5
I0
sg97
I0
sg145
I0
sg67
I0
sg26
I0
sg94
I0
sg30
I0
sg31
I1
sg164
I11
sg253
I0
sg33
I0
sg146
I0
sg34
I0
sg262
I0
sg207
I1
sg130
I0
sg70
I0
sg42
I0
sg131
I0
sg225
I0
sg219
I10
sg212
I0
sg51
I0
sg117
I12
sg213
I12
sg73
I13
sg267
I0
sa(dp271
S'Karstark'
p272
I0
sg185
I0
sg215
I0
sg88
I0
sg58
I0
sg256
I0
sg10
I0
sg133
I14
sg269
I0
sg47
I0
sg134
I0
sg13
I0
sS'Shireen'
p273
I0
sg107
I0
sg15
I0
sg16
I0
sg17
I0
sg21
I1
sg167
I1
sg227
I0
sg201
I0
sg194
I1
sg202
I0
sg108
I0
sg244
I0
sg186
I0
sg231
I0
sg191
I0
sg49
I5
sg136
I0
sg76
I16
sg195
I0
sg83
I1
sg99
I0
sg85
I0
sg73
I15
sg66
I15
sg196
I0
sg187
I0
sg249
I0
sg137
I0
sg89
I0
sg32
I0
sg109
I0
sg216
I0
sg169
I0
sg203
I0
sg204
I0
sg138
I1
sg90
I16
sg110
I0
sg36
I0
sg250
I0
sg170
I1
sg148
I0
sg155
I0
sg149
I0
sg126
I0
sg23
I0
sg111
I0
sg43
I1
sg112
I0
sg156
I0
sg63
I0
sg45
I0
sg93
I0
sg57
I0
sg46
I0
sg245
I0
sg59
I0
sg257
I0
sg225
I0
sg12
I0
sg91
I1
sg246
I0
sg232
I0
sg113
I0
sg81
I0
sg61
I0
sg157
I0
sg258
I0
sg79
I0
sg190
I0
sg234
I0
sS'Edric'
p274
I0
sg82
I0
sg114
I0
sg92
I0
sg40
I0
sg259
I0
sg140
I1
sg104
I0
sg80
I1
sg262
I0
sg30
I0
sg100
I0
sg84
I0
sg128
I0
sg75
I0
sg68
I0
sg260
I0
sg261
I0
sg35
I0
sg235
I0
sg38
I0
sg118
I0
sg115
I0
sg18
I0
sg224
I2
sg236
I0
sg72
I0
sg151
I13
sg52
I5
sg145
I0
sg222
I0
sg238
I0
sg141
I0
sg142
I1
sg177
I0
sg247
I0
sg6
I0
sg67
I0
sg56
I0
sg116
I0
sg143
I0
sg7
I0
sg188
I0
sg101
I0
sg11
I0
sg158
I0
sg94
I0
sg41
I0
sg197
I0
sg102
I0
sg14
I0
sg205
I0
sg78
I0
sg248
I0
sg172
I0
sg51
I0
sg171
I0
sg33
I0
sg173
I0
sg152
I0
sg119
I0
sg174
I12
sg20
I0
sg120
I0
sg175
I0
sS'Olyvar'
p275
I0
sg228
I0
sg252
I0
sg129
I1
sg229
I0
sg121
I16
sg50
I0
sg263
I0
sg270
I0
sg160
I0
sg103
I0
sg165
I0
sg161
I0
sg69
I0
sg162
I0
sg70
I0
sg37
I0
sS'Tommard'
p276
I0
sg150
I0
sg71
I0
sg39
I16
sg159
I0
sg144
I0
sg217
I0
sg189
I12
sg122
I0
sg62
I0
sg264
I0
sg42
I0
sg239
I0
sg208
I0
sg2
I0
sg218
I0
sg3
I0
sg4
I0
sg54
I0
sg123
I14
sg86
I0
sg55
I0
sg117
I14
sg163
I16
sg251
I6
sg178
I0
sg8
I6
sg124
I1
sg9
I0
sg60
I0
sg206
I0
sg192
I0
sg240
I0
sg179
I12
sg125
I0
sg241
I0
sg198
I10
sg209
I0
sg96
I1
sg48
I1
sg19
I0
sg180
I0
sg181
I0
sg22
I0
sg153
I0
sg254
I0
sg25
I1
sg64
I0
sg233
I0
sg210
I0
sg182
I0
sg127
I0
sg105
I0
sS'Grey'
p277
I0
sg176
I0
sg265
I0
sg27
I0
sg168
I0
sg5
I0
sg97
I0
sg65
I0
sg183
I0
sg26
I0
sg29
I18
sg242
I0
sg31
I1
sg164
I13
sg139
I0
sg24
I1
sg146
I0
sg34
I0
sg237
I0
sg207
I1
sg130
I0
sg266
I0
sg253
I0
sg211
I12
sg131
I0
sg135
I0
sg219
I10
sg212
I0
sg28
I0
sg95
I0
sg213
I12
sg77
I0
sg267
I0
sa(dp278
g272
I0
sg185
I0
sg210
I0
sg215
I0
sg88
I0
sg58
I0
sg237
I0
sg256
I0
sg10
I0
sg133
I14
sg269
I0
sg47
I0
sg134
I0
sg13
I0
sg273
I0
sg206
I0
sg107
I0
sg160
I0
sg16
I0
sg17
I0
sg21
I1
sg167
I1
sg227
I0
sg201
I0
sg194
I1
sg202
I0
sg108
I0
sg244
I0
sg186
I0
sg231
I0
sg191
I0
sg274
I0
sg136
I0
sg56
I0
sg195
I0
sg83
I1
sg99
I0
sg85
I0
sg66
I15
sg196
I0
sg187
I0
sS'Lothar'
p279
I0
sg69
I0
sg137
I0
sg89
I0
sg32
I0
sg109
I0
sg143
I0
sg169
I0
sg203
I0
sg204
I0
sg138
I1
sg90
I16
sg110
I0
sg36
I0
sg162
I0
sg170
I1
sg148
I0
sg155
I0
sg149
I0
sg92
I0
sg153
I0
sg111
I0
sg43
I1
sg112
I0
sg156
I0
sg79
I0
sg45
I0
sg188
I0
sg57
I0
sg46
I0
sg245
I0
sg59
I0
sg257
I0
sg12
I0
sg91
I1
sg246
I0
sg232
I0
sg113
I0
sg81
I0
sg61
I0
sg157
I0
sg258
I0
sg39
I16
sg234
I0
sg49
I5
sg114
I0
sg23
I0
sg40
I0
sg259
I0
sg140
I1
sg127
I0
sg80
I1
sg65
I0
sg100
I0
sg84
I0
sg277
I0
sg28
I0
sg265
I0
sg68
I0
sg77
I0
sg260
I0
sg261
I0
sg233
I0
sg35
I0
sg235
I0
sg38
I0
sg9
I0
sg197
I0
sg115
I0
sg18
I0
sg236
I0
sg205
I0
sg6
I0
sg262
I0
sg151
I13
sg52
I5
sg238
I0
sg14
I0
sg142
I1
sg208
I0
sg247
I0
sg75
I0
sg183
I0
sg76
I16
sg116
I0
sg216
I0
sg7
I0
sS'Black'
p280
I0
sg93
I0
sg101
I0
sg11
I0
sg158
I0
sg29
I18
sg41
I0
sg118
I0
sg254
I0
sg141
I0
sg102
I0
sg78
I0
sg248
I0
sg172
I0
sg171
I0
sg24
I1
sg173
I0
sg152
I0
sg119
I0
sg174
I12
sg20
I0
sg120
I0
sg224
I2
sg275
I0
sg228
I0
sg129
I1
sg229
I0
sg121
I16
sg50
I0
sg263
I0
sg270
I0
sg15
I0
sg103
I0
sg165
I0
sg161
I0
sg249
I0
sg250
I0
sg266
I0
sg37
I0
sg276
I0
sg150
I0
sg71
I0
sg190
I0
sg159
I0
sg144
I0
sg217
I0
sg189
I12
sg122
I0
sg62
I0
sg264
I0
sg211
I12
sg239
I0
sg177
I0
sg2
I0
sg218
I0
sg3
I0
sg4
I0
sg54
I0
sg123
I14
sg86
I0
sg55
I0
sg163
I16
sg251
I6
sg178
I0
sg8
I6
sg124
I1
sg222
I0
sg242
I0
sg60
I0
sg252
I0
sg192
I0
sg240
I0
sg95
I0
sg179
I12
sg125
I0
sg225
I0
sg198
I10
sg209
I0
sg96
I1
sg48
I1
sg19
I0
sg180
I0
sg181
I0
sg22
I0
sg241
I0
sg63
I0
sg25
I1
sg64
I0
sg126
I0
sg82
I0
sg182
I0
sg104
I0
sg105
I0
sg128
I0
sg176
I0
sg175
I0
sg27
I0
sg168
I0
sg5
I0
sg97
I0
sg145
I0
sg67
I0
sg26
I0
sg94
I0
sg30
I0
sg31
I1
sg164
I13
sg139
I0
sg33
I0
sg146
I0
sg34
I0
sg72
I0
sg207
I1
sg130
I0
sg70
I0
sg253
I0
sg42
I0
sg131
I0
sg135
I0
sg219
I10
sg212
I0
sg51
I0
sg117
I14
sg213
I12
sg73
I15
sg267
I0
sa(dp281
g272
I0
sg185
I0
sg215
I0
sg88
I0
sg189
I13
sg72
I0
sg58
I0
sg256
I0
sg10
I0
sg133
I15
sg269
I0
sg47
I0
sg134
I0
sg13
I0
sg273
I0
sg107
I0
sg15
I0
sg16
I0
sg17
I0
sg21
I1
sg167
I1
sg227
I0
sg201
I0
sg194
I1
sg202
I0
sg108
I0
sg244
I0
sg186
I0
sg231
I0
sg191
I0
sg49
I5
sg136
I0
sS'Myranda'
p282
I0
sg76
I16
sg195
I0
sg83
I1
sg99
I0
sg85
I0
sg73
I16
sg66
I16
sg196
I0
sg187
I0
sg279
I0
sg249
I0
sg137
I0
sg89
I0
sg32
I0
sg109
I0
sg216
I0
sg169
I0
sg203
I0
sg204
I0
sg138
I1
sg90
I16
sg110
I0
sg36
I0
sg250
I0
sg170
I1
sg148
I0
sg155
I0
sg149
I0
sg126
I0
sg23
I0
sg111
I0
sg43
I1
sg112
I0
sg156
I0
sg254
I0
sg45
I0
sg93
I0
sg57
I0
sg46
I0
sS'Razdal'
p283
I0
sg59
I0
sg257
I0
sg175
I0
sg12
I0
sg91
I1
sg246
I0
sg275
I0
sg232
I0
sg113
I0
sg233
I0
sg61
I0
sg157
I0
sg258
I0
sg190
I0
sg234
I0
sg274
I0
sg82
I0
sg114
I0
sg92
I0
sg40
I0
sg259
I0
sg140
I1
sg104
I0
sg80
I1
sg30
I0
sg100
I0
sg84
I0
sg128
I0
sg75
I0
sg68
I0
sg260
I0
sg261
I0
sg35
I0
sg235
I0
sg38
I0
sg118
I0
sg115
I0
sg18
I0
sS'Violet'
p284
I0
sg236
I0
sg241
I0
sg237
I0
sg151
I14
sg52
I5
sg145
I0
sg222
I0
sg238
I0
sg141
I0
sg142
I1
sg177
I0
sg247
I0
sg6
I0
sg67
I0
sg56
I0
sg116
I0
sg143
I0
sg7
I0
sg280
I0
sg188
I0
sg101
I0
sg11
I0
sg158
I0
sg94
I0
sg41
I0
sg197
I0
sg102
I0
sg14
I0
sg205
I0
sg78
I0
sg248
I0
sg172
I0
sg51
I0
sg171
I0
sg33
I0
sg173
I0
sg152
I0
sg119
I0
sg174
I13
sg20
I0
sg120
I0
sg224
I2
sg206
I0
sg228
I0
sg129
I1
sg229
I0
sg121
I16
sg50
I0
sg263
I0
sg270
I0
sg160
I0
sg103
I0
sg165
I0
sg161
I0
sg69
I0
sg162
I0
sg70
I0
sg37
I0
sg276
I0
sg150
I0
sg71
I0
sg39
I16
sg27
I0
sg159
I0
sg144
I0
sg217
I0
sg245
I0
sg122
I0
sg62
I0
sg264
I0
sg42
I0
sg239
I0
sg208
I0
sg2
I0
sg218
I0
sg3
I0
sg4
I0
sg54
I0
sg123
I15
sg86
I0
sg55
I0
sg117
I15
sg163
I16
sg251
I7
sg178
I0
sg8
I6
sg124
I1
sg9
I0
sg63
I0
sg60
I0
sg252
I0
sg192
I0
sg240
I0
sg179
I13
sg125
I0
sg77
I0
sg198
I11
sg209
I0
sg96
I1
sg48
I1
sg19
I0
sg180
I0
sg181
I0
sg22
I0
sg153
I0
sg79
I0
sg25
I1
sg64
I0
sg81
I0
sg210
I0
sg182
I0
sg127
I0
sg105
I0
sg277
I0
sg176
I0
sg265
I0
sS'Steelshanks'
p285
I0
sg168
I0
sg5
I0
sg97
I0
sg65
I0
sg183
I0
sg26
I0
sg29
I19
sg242
I0
sg31
I1
sg164
I14
sg139
I0
sg24
I1
sg146
I0
sg34
I0
sg262
I0
sg207
I1
sg130
I0
sg266
I0
sg253
I0
sg211
I12
sg131
I0
sg135
I0
sg219
I10
sg212
I0
sg28
I0
sg95
I0
sg213
I12
sg225
I0
sg267
I0
sa(dp286
g272
I0
sg185
I0
sg210
I0
sg215
I0
sg88
I0
sg58
I0
sg256
I0
sg10
I0
sg133
I15
sg269
I0
sg47
I0
sg134
I0
sg13
I0
sg273
I0
sg107
I0
sg160
I0
sg16
I0
sg17
I0
sg21
I1
sg167
I1
sg227
I0
sg201
I0
sg194
I1
sg202
I0
sg108
I0
sg244
I0
sg186
I0
sg231
I0
sg191
I0
sg274
I0
sg136
I0
sg282
I0
sg56
I0
sg195
I0
sg83
I1
sg99
I0
sg85
I0
sg66
I16
sg196
I0
sg187
I0
sg279
I0
sg69
I0
sg137
I0
sg89
I0
sg32
I0
sg109
I0
sg143
I0
sg169
I0
sg203
I0
sg204
I0
sg138
I1
sg90
I16
sg110
I0
sg36
I0
sg162
I0
sg170
I1
sg148
I0
sg155
I0
sg149
I0
sg92
I0
sg111
I0
sg43
I1
sg112
I0
sg156
I0
sg63
I0
sg45
I0
sg188
I0
sg57
I0
sS'Daario'
p287
I0
sg189
I13
sg59
I0
sg257
I0
sg225
I0
sg12
I0
sg91
I1
sg246
I0
sg232
I0
sg113
I0
sg233
I0
sg61
I0
sg157
I0
sg258
I0
sg79
I0
sg39
I16
sg234
I0
sS'Prendahl'
p288
I0
sg49
I5
sg114
I0
sg23
I0
sg40
I0
sg259
I0
sg140
I1
sg127
I0
sg80
I1
sg262
I0
sg65
I0
sg217
I0
sg100
I0
sg84
I0
sg277
I0
sg245
I0
sg97
I0
sg265
I0
sg68
I0
sg77
I0
sg260
I0
sg261
I0
sg35
I0
sg28
I0
sg235
I0
sg38
I0
sg9
I0
sg197
I0
sg115
I0
sg18
I0
sg284
I0
sg236
I0
sg205
I0
sg6
I0
sg72
I0
sg151
I14
sg52
I5
sg81
I0
sg238
I0
sg14
I0
sg142
I1
sg208
I0
sg247
I0
sg75
I0
sg183
I0
sg76
I16
sg116
I0
sg216
I0
sg7
I0
sg280
I0
sg93
I0
sg101
I0
sg11
I0
sg158
I0
sg29
I19
sg41
I0
sg118
I0
sg242
I0
sg141
I0
sg102
I0
sg78
I0
sg248
I0
sg172
I0
sg171
I0
sg24
I1
sg173
I0
sg152
I0
sg119
I0
sg174
I13
sg20
I0
sg120
I0
sg175
I0
sg275
I0
sg228
I0
sg252
I0
sg129
I1
sg229
I0
sg121
I16
sg50
I0
sg263
I0
sg270
I0
sg15
I0
sg103
I0
sg165
I0
sg161
I0
sg249
I0
sg250
I0
sg266
I0
sg37
I0
sg46
I0
sg276
I0
sg150
I0
sg71
I0
sg190
I0
sg159
I0
sg144
I0
sS'Mero'
p289
I0
sg283
I0
sg122
I0
sg62
I0
sg264
I0
sg211
I12
sg239
I0
sg177
I0
sg2
I0
sg218
I0
sg3
I0
sg4
I0
sg54
I0
sg123
I15
sg86
I0
sg55
I0
sg163
I16
sg251
I7
sg178
I0
sg8
I6
sg124
I1
sg222
I0
sg60
I0
sg206
I0
sg192
I0
sg240
I0
sg95
I0
sg179
I13
sg125
I0
sg241
I0
sg198
I11
sg209
I0
sg96
I1
sg48
I1
sg19
I0
sg180
I0
sg181
I0
sg22
I0
sg153
I0
sg254
I0
sg25
I1
sg64
I0
sg126
I0
sg82
I0
sg182
I0
sg104
I0
sg105
I0
sg128
I0
sg176
I0
sg224
I2
sg27
I0
sg168
I0
sg5
I0
sg285
I0
sg145
I0
sg67
I0
sg26
I0
sg94
I0
sg30
I0
sg31
I1
sg164
I14
sg139
I0
sg33
I0
sg146
I0
sg34
I0
sg237
I0
sg207
I1
sg130
I0
sg70
I0
sg253
I0
sg42
I0
sg131
I0
sg135
I0
sg219
I10
sg212
I0
sg51
I0
sg117
I15
sg213
I12
sg73
I16
sg267
I0
sa(dp290
g272
I0
sg185
I0
sg153
I0
sg215
I0
sg88
I0
sg283
I0
sg58
I0
sg237
I0
sg256
I0
sg10
I0
sg133
I16
sg269
I0
sS'Derwa'
p291
I0
sg134
I0
sg13
I0
sg273
I0
sg206
I0
sg107
I0
sg15
I0
sg16
I0
sg17
I0
sg21
I1
sg254
I0
sg167
I1
sg227
I0
sg201
I0
sg194
I1
sg202
I0
sg108
I0
sg244
I0
sg186
I0
sg231
I0
sg191
I0
sg49
I5
sg136
I0
sg282
I0
sg97
I0
sg195
I0
sg83
I1
sg99
I0
sg85
I0
sg73
I17
sg66
I17
sg196
I0
sg187
I0
sg279
I0
sg249
I0
sg137
I0
sg89
I0
sg32
I0
sg109
I0
sg216
I0
sg169
I0
sg203
I0
sg204
I0
sg138
I1
sg90
I16
sg110
I0
sg36
I0
sg162
I0
sg170
I1
sg148
I0
sg208
I0
sg155
I0
sg149
I0
sg126
I0
sg23
I0
sg177
I0
sg111
I0
sg43
I1
sg112
I0
sg156
I0
sg79
I0
sg45
I0
sg93
I0
sg57
I0
sg287
I0
sg189
I14
sg59
I0
sg257
I0
sg54
I0
sg12
I0
sg91
I1
sg246
I0
sg232
I0
sg113
I0
sg81
I0
sg61
I0
sg157
I0
sg258
I0
sg190
I0
sg234
I0
sg288
I0
sg274
I0
sg82
I0
sg114
I0
sg92
I0
sg40
I0
sg259
I0
sg47
I0
sg140
I1
sg104
I0
sg80
I1
sg289
I0
sg30
I0
sg100
I0
sg84
I0
sg128
I0
sg75
I0
sg68
I0
sg77
I0
sg260
I0
sg261
I0
sg35
I0
sg235
I0
sg38
I0
sg118
I0
sg115
I0
sg18
I0
sg224
I2
sg284
I0
sg236
I0
sg262
I0
sg151
I15
sg52
I5
sg145
I0
sg222
I0
sg238
I0
sg141
I0
sg142
I1
sg76
I16
sS'Wendel'
p292
I0
sg247
I0
sg6
I0
sg67
I0
sg56
I0
sg116
I0
sg143
I0
sg7
I0
sg280
I0
sg188
I0
sg101
I0
sg11
I0
sg158
I0
sS'Janeya'
p293
I0
sg94
I0
sS'Serra'
p294
I0
sg41
I0
sg197
I0
sg102
I0
sg14
I0
sg168
I0
sS'Frey'
p295
I0
sg205
I0
sg78
I0
sg248
I0
sg172
I0
sg51
I0
sg171
I0
sg33
I0
sg173
I0
sg152
I0
sg119
I0
sS'Walda'
p296
I0
sg174
I14
sg20
I0
sg120
I0
sg175
I0
sg275
I0
sg228
I0
sg129
I1
sg229
I0
sg121
I16
sg50
I0
sg263
I0
sg270
I0
sg160
I0
sg103
I0
sg165
I0
sg251
I8
sg161
I0
sg69
I0
sS'Marianne'
p297
I0
sg70
I0
sg37
I0
sg46
I0
sg276
I0
sg150
I0
sg71
I0
sg39
I16
sg159
I0
sg144
I0
sg217
I0
sg245
I0
sg122
I0
sg62
I0
sg264
I0
sg42
I0
sg239
I0
sS'Hog'
p298
I0
sg2
I0
sg218
I0
sg3
I0
sg4
I0
sS'Roslin'
p299
I0
sg123
I16
sg86
I0
sg55
I0
sg117
I16
sg163
I16
sS'Drummer'
p300
I0
sg178
I0
sg8
I6
sg124
I1
sg9
I0
sg250
I0
sS'Shirei'
p301
I0
sg60
I0
sg252
I0
sg192
I0
sS'Freya'
p302
I0
sg179
I14
sg125
I0
sg225
I0
sg198
I12
sg209
I0
sS'Sarra'
p303
I0
sg96
I1
sg48
I1
sg19
I0
sS'Merry'
p304
I0
sg180
I0
sg181
I0
sg22
I0
sg241
I0
sg63
I0
sg25
I1
sg64
I0
sg233
I0
sg210
I0
sg182
I0
sg127
I0
sg105
I0
sg277
I0
sg176
I0
sg265
I0
sg27
I0
sg139
I0
sS'Neyela'
p305
I0
sg5
I0
sg285
I0
sg65
I0
sg183
I0
sg26
I0
sg29
I20
sg242
I0
sg31
I1
sg164
I15
sg240
I0
sg24
I1
sg146
I0
sg34
I0
sg72
I0
sg207
I1
sg130
I0
sg266
I0
sg253
I0
sg211
I12
sg131
I0
sg135
I0
sg219
I10
sg212
I0
sg28
I0
sg95
I0
sg213
I12
sS'Waldra'
p306
I0
sg267
I0
sa(dp307
g272
I0
sg185
I0
sg210
I2
sg241
I0
sg215
I0
sg88
I0
sg72
I0
sg58
I0
sS'Desmond'
p308
I0
sg10
I0
sg55
I0
sg133
I19
sg269
I0
sg291
I0
sg134
I0
sg13
I0
sg273
I0
sg107
I0
sg160
I0
sg16
I0
sg17
I0
sg48
I1
sg21
I1
sg167
I1
sg227
I2
sg201
I2
sg194
I1
sg202
I0
sg108
I0
sg244
I2
sg186
I0
sg231
I0
sg191
I0
sg274
I0
sg136
I0
sg282
I0
sg97
I0
sg195
I0
sg83
I1
sg99
I0
sS'Eldrick'
p309
I0
sg85
I0
sg66
I20
sg196
I0
sg187
I0
sg279
I0
sg69
I0
sg137
I0
sg89
I2
sg32
I0
sg109
I0
sg143
I0
sg169
I0
sg203
I0
sg204
I0
sg138
I1
sg90
I18
sg110
I0
sg36
I0
sg297
I0
sg170
I1
sg148
I0
sg155
I0
sg149
I0
sg92
I0
sg111
I2
sg43
I1
sg135
I0
sg112
I0
sg156
I2
sg254
I2
sg45
I0
sg188
I0
sg57
I0
sg287
I0
sg283
I2
sg256
I0
sg257
I0
sg12
I2
sg91
I1
sg246
I0
sg275
I0
sg232
I0
sg113
I0
sg81
I0
sg61
I0
sg157
I2
sg258
I0
sg39
I18
sg234
I0
sg288
I0
sg49
I7
sg114
I0
sg23
I0
sg40
I0
sg259
I0
sg47
I0
sg140
I1
sg127
I0
sg80
I1
sg65
I0
sg217
I0
sg100
I0
sg84
I0
sg277
I0
sg245
I0
sg28
I0
sg265
I0
sg68
I2
sg260
I0
sg261
I2
sg233
I0
sg35
I0
sg235
I0
sg38
I0
sg9
I0
sg197
I0
sg115
I0
sg18
I0
sg284
I0
sg236
I0
sg205
I0
sg6
I2
sg237
I0
sg151
I18
sg52
I7
sg238
I0
sg14
I0
sg142
I1
sg177
I0
sg247
I0
sg75
I0
sg183
I0
sg76
I18
sg116
I0
sg299
I2
sg216
I0
sg7
I2
sg280
I0
sg93
I0
sg101
I0
sS"Yunkai'i"
p310
I0
sg11
I0
sg292
I0
sg293
I0
sg29
I23
sg294
I0
sg41
I2
sg118
I0
sg242
I0
sg141
I0
sg305
I0
sg295
I0
sg102
I0
sg78
I0
sg248
I0
sg172
I0
sg171
I0
sg24
I1
sg173
I0
sg152
I2
sg119
I0
sg296
I0
sg174
I17
sg20
I0
sg120
I0
sg224
I4
sg206
I0
sg158
I0
sg228
I0
sg129
I1
sg229
I0
sg121
I18
sg50
I0
sg263
I0
sg300
I0
sg270
I0
sg15
I0
sg103
I0
sg165
I2
sg251
I11
sg161
I0
sg249
I0
sg162
I0
sg266
I0
sg37
I0
sg46
I2
sg276
I0
sg150
I0
sg71
I0
sg190
I0
sg159
I0
sg144
I0
sg289
I0
sg189
I17
sg122
I0
sg62
I0
sg264
I0
sg211
I14
sg239
I0
sg208
I0
sg2
I0
sg218
I0
sg3
I0
sg4
I0
sg54
I2
sg123
I19
sg240
I0
sg86
I0
sg59
I0
sg306
I0
sg163
I18
sg168
I0
sg178
I0
sg8
I8
sg124
I1
sg222
I0
sg63
I0
sg301
I0
sg60
I0
sg298
I2
sg252
I0
sg192
I0
sg302
I0
sg95
I0
sg179
I17
sg125
I0
sg77
I0
sg198
I15
sg209
I0
sg303
I0
sg96
I1
sS'Fruit'
p311
I0
sg19
I0
sg304
I0
sg180
I0
sg181
I0
sg22
I2
sg153
I0
sg79
I0
sg25
I1
sg64
I0
sg56
I2
sg126
I0
sg82
I0
sg182
I0
sg104
I0
sg105
I0
sg128
I0
sg176
I0
sg175
I0
sg27
I0
sg250
I0
sg5
I0
sg285
I0
sg145
I0
sg67
I0
sg26
I0
sg94
I0
sg30
I0
sg31
I1
sg164
I18
sg139
I0
sg33
I0
sg146
I0
sg34
I0
sg262
I0
sg207
I1
sg130
I0
sg70
I0
sg253
I0
sg42
I0
sg131
I0
sg225
I0
sg219
I12
sg212
I0
sg51
I0
sg117
I19
sg213
I14
sg73
I20
sg267
I0
sa(dp312
g289
I0
sg256
I0
sg272
I0
sg185
I0
sg215
I0
sg88
I0
sg189
I17
sg209
I0
sg58
I0
sg308
I0
sg10
I0
sg133
I19
sg269
I0
sg291
I0
sg134
I0
sg13
I0
sg273
I0
sg107
I0
sg15
I0
sg16
I0
sg17
I0
sg311
I0
sg21
I1
sg167
I1
sg227
I2
sg201
I2
sg194
I1
sS'Deziel'
p313
I0
sg108
I0
sg244
I2
sg186
I0
sg231
I0
sg191
I0
sS'Thenn'
p314
I0
sg135
I0
sg136
I0
sg282
I0
sg97
I0
sg195
I0
sg83
I1
sg99
I0
sg309
I0
sg85
I0
sg73
I20
sg66
I20
sg196
I0
sg187
I0
sg279
I0
sg249
I0
sg137
I0
sg89
I2
sg32
I0
sg109
I0
sg216
I0
sg169
I0
sg203
I0
sg204
I0
sg138
I1
sg90
I18
sg110
I0
sg36
I0
sg162
I0
sg170
I1
sg148
I0
sg208
I0
sg155
I0
sg149
I0
sg126
I0
sg23
I0
sg111
I2
sg43
I1
sg112
I0
sg156
I2
sg63
I0
sg45
I0
sg93
I0
sg57
I0
sg287
I0
sg283
I2
sg55
I0
sg257
I0
sg175
I0
sg54
I2
sg12
I2
sg91
I1
sg246
I0
sg232
I0
sg113
I0
sg233
I0
sg61
I0
sg157
I2
sg258
I0
sg79
I0
sg190
I0
sg234
I0
sg288
I0
sg274
I0
sg82
I0
sg114
I0
sg92
I0
sg40
I0
sg259
I0
sg47
I0
sg140
I1
sg104
I0
sg80
I1
sg262
I0
sg161
I0
sg30
I0
sg100
I0
sg84
I0
sg128
I0
sg75
I0
sg68
I2
sg77
I0
sg260
I0
sg261
I2
sg181
I0
sg35
I0
sg235
I0
sg38
I0
sg118
I0
sg115
I0
sg18
I0
sg284
I0
sg236
I0
sg72
I0
sg151
I18
sg52
I8
sg49
I8
sg222
I0
sg238
I0
sg141
I0
sg142
I1
sg177
I0
sg247
I0
sg6
I2
sg67
I0
sg76
I18
sg116
I0
sg143
I0
sg7
I2
sg280
I0
sg188
I0
sg101
I0
sg310
I0
sg11
I0
sg292
I0
sg293
I0
sg94
I0
sg294
I0
sS'Ellaria'
p315
I0
sg41
I2
sg197
I0
sg102
I0
sg14
I0
sg295
I0
sg205
I0
sg78
I0
sg248
I0
sg172
I0
sg51
I0
sS'Oberyn'
p316
I0
sg171
I0
sg33
I0
sg173
I0
sg152
I2
sg119
I0
sg296
I0
sg174
I17
sg20
I0
sg120
I0
sg224
I5
sg275
I0
sg158
I0
sg228
I0
sg252
I0
sg129
I1
sg229
I0
sg121
I18
sg50
I0
sg263
I0
sg270
I0
sg160
I0
sg103
I0
sg165
I2
sg251
I11
sg202
I0
sg69
I0
sg297
I0
sg70
I0
sg37
I0
sg46
I2
sg276
I0
sg150
I0
sg71
I0
sg39
I18
sg159
I0
sg144
I0
sg217
I0
sg245
I0
sg122
I0
sg62
I0
sg264
I0
sg42
I0
sg239
I0
sS'Endrew'
p317
I0
sg2
I0
sg218
I0
sg3
I0
sg4
I0
sg299
I2
sg123
I19
sg86
I0
sg59
I0
sg117
I19
sg163
I18
sg300
I0
sg178
I0
sg8
I9
sg124
I1
sg9
I0
sg250
I0
sS'Dagos'
p318
I0
sg301
I0
sg60
I0
sg298
I2
sS'Lowell'
p319
I0
sg206
I0
sg192
I0
sg240
I0
sg179
I17
sg125
I0
sg241
I0
sg198
I15
sS'Blackmont'
p320
I0
sg145
I0
sg303
I0
sg96
I1
sg48
I1
sg19
I0
sg304
I0
sg180
I0
sg168
I0
sg22
I2
sg153
I0
sg254
I2
sg25
I1
sg64
I0
sg56
I2
sg81
I0
sg210
I2
sg182
I0
sg127
I0
sg105
I0
sg277
I0
sg176
I0
sg265
I0
sg27
I0
sg305
I0
sg5
I0
sg285
I0
sg65
I0
sS'Morgan'
p321
I0
sg183
I0
sg26
I0
sg29
I23
sg242
I0
sg31
I1
sg164
I18
sg139
I0
sg24
I1
sg146
I0
sg34
I0
sg237
I0
sg207
I1
sg130
I0
sg266
I0
sg253
I0
sg211
I14
sg131
I0
sS'Styr'
p322
I0
sg225
I0
sg219
I12
sg212
I0
sg28
I0
sg95
I0
sg302
I0
sg213
I14
sg306
I0
sg267
I0
sa(dp323
g272
I0
sg185
I0
sg210
I2
sg215
I0
sg88
I0
sg320
I0
sg58
I0
sg50
I0
sg308
I0
sg10
I0
sg133
I20
sg269
I0
sg291
I0
sg134
I0
sg13
I0
sg273
I0
sg206
I0
sg107
I0
sg160
I0
sg16
I0
sg17
I0
sg48
I1
sg21
I1
sg167
I1
sg227
I2
sg201
I2
sg194
I1
sg313
I0
sg108
I0
sg244
I2
sg186
I0
sg231
I0
sg191
I0
sg314
I0
sg274
I0
sg136
I0
sg282
I0
sg97
I0
sg195
I0
sg83
I1
sg99
I0
sg309
I0
sg85
I0
sg66
I21
sg196
I0
sg187
I0
sg279
I0
sg69
I0
sg137
I0
sg89
I2
sg32
I0
sg109
I0
sg143
I0
sg169
I0
sg203
I0
sg204
I0
sg138
I1
sg90
I19
sg110
I0
sg22
I2
sg36
I0
sg297
I0
sg170
I1
sg148
I0
sg155
I0
sg149
I0
sg92
I0
sg153
I0
sg111
I2
sg43
I1
sg112
I0
sg146
I0
sg156
I2
sg79
I0
sg81
I0
sg45
I0
sg188
I0
sg57
I0
sg287
I0
sg189
I18
sg256
I0
sg257
I0
sg12
I2
sg91
I1
sg246
I0
sS'Dwarf'
p324
I0
sg113
I0
sg233
I0
sg61
I0
sg157
I2
sg258
I0
sg39
I19
sg234
I0
sg288
I0
sg135
I0
sg242
I0
sg114
I0
sg23
I0
sg40
I0
sg259
I0
sg47
I0
sg140
I1
sg127
I0
sg80
I1
sg5
I0
sg65
I0
sg217
I0
sg100
I0
sg84
I0
sg277
I0
sg245
I0
sg237
I0
sg265
I0
sg68
I2
sg260
I0
sg261
I3
sg35
I0
sg28
I0
sg235
I0
sg38
I0
sg9
I0
sg197
I0
sg115
I0
sg18
I0
sg284
I0
sg236
I0
sg205
I0
sg6
I2
sg262
I0
sg151
I19
sg52
I9
sg49
I9
sg317
I0
sg238
I0
sg14
I0
sg142
I1
sg177
I0
sg247
I0
sg75
I0
sg183
I0
sg76
I19
sg116
I0
sg299
I2
sg216
I0
sg7
I2
sg280
I0
sg93
I0
sg101
I0
sg310
I0
sg11
I0
sg292
I0
sg293
I0
sg29
I24
sg294
I0
sg315
I0
sg41
I2
sg118
I0
sg254
I2
sg141
I0
sg168
I0
sg295
I0
sS'Mace'
p325
I0
sg102
I0
sg78
I0
sg248
I0
sg172
I0
sg316
I0
sg171
I0
sg24
I1
sg173
I0
sg152
I2
sg119
I0
sg296
I0
sg174
I18
sg20
I0
sg120
I0
sg175
I0
sg275
I0
sg158
I0
sg228
I0
sg129
I1
sg229
I0
sg121
I19
sS'Axell'
p326
I1
sg263
I0
sg300
I0
sg270
I0
sg15
I0
sg103
I0
sg165
I2
sg161
I0
sg249
I0
sg162
I0
sg266
I0
sg37
I0
sg46
I2
sg276
I0
sg150
I0
sg71
I0
sg190
I0
sg202
I0
sg144
I0
sg289
I0
sg283
I2
sg122
I0
sg62
I0
sg264
I0
sg211
I15
sg239
I0
sg208
I0
sg2
I0
sg218
I0
sg3
I0
sg4
I0
sg54
I2
sg123
I20
sg86
I0
sg55
I0
sg117
I20
sg306
I0
sg163
I19
sg251
I12
sg178
I0
sg8
I10
sg124
I1
sg222
I0
sg318
I0
sg301
I0
sg60
I0
sg298
I3
sg319
I0
sg252
I0
sg192
I0
sg240
I0
sg95
I0
sg179
I18
sg125
I0
sg77
I0
sg198
I16
sg209
I0
sg303
I0
sg96
I1
sg311
I0
sg19
I0
sg304
I0
sg180
I0
sg181
I0
sg59
I0
sg241
I0
sg63
I0
sg25
I1
sg64
I0
sg56
I2
sg126
I0
sg82
I0
sg182
I0
sg104
I0
sg105
I0
sg128
I0
sg176
I0
sg224
I6
sg27
I0
sg139
I0
sg250
I0
sg159
I0
sg285
I0
sg145
I0
sg321
I0
sg67
I0
sg26
I0
sg94
I0
sg30
I0
sg31
I1
sg164
I19
sg232
I0
sg33
I0
sg305
I0
sg34
I0
sg72
I0
sg207
I1
sg130
I0
sg70
I0
sg253
I0
sg42
I0
sg131
I0
sg322
I0
sg225
I0
sg219
I13
sg212
I0
sg51
I0
sS'Tansy'
p327
I0
sg302
I0
sg213
I15
sg73
I21
sg267
I0
sa(dp328
g198
I17
sg256
I0
sg272
I0
sg185
I0
sg215
I0
sg88
I0
sg283
I2
sg72
I0
sg209
I0
sg58
I0
sg326
I2
sg308
I0
sg10
I0
sg133
I21
sg269
I0
sg291
I0
sg134
I0
sg13
I0
sg273
I0
sg107
I0
sg15
I0
sg16
I0
sg17
I0
sg311
I0
sg21
I1
sg167
I1
sg227
I2
sg201
I2
sg194
I1
sg313
I0
sg108
I0
sg244
I2
sg186
I0
sg231
I0
sg191
I0
sS"Olly's"
p329
I0
sg135
I0
sg136
I0
sg282
I0
sg97
I0
sg195
I0
sg83
I1
sg99
I0
sg309
I0
sg85
I0
sg73
I22
sg66
I22
sg196
I0
sg187
I0
sg279
I0
sg249
I0
sg137
I0
sg89
I2
sg32
I0
sg109
I0
sg216
I0
sg169
I0
sg203
I0
sg204
I0
sg138
I1
sg90
I19
sg110
I0
sg114
I0
sg36
I0
sg162
I0
sg170
I1
sg148
I0
sS'Olly'
p330
I0
sg155
I0
sg149
I0
sg126
I0
sg23
I0
sg111
I2
sS'Whore'
p331
I0
sg43
I1
sg112
I0
sg156
I2
sg254
I2
sg45
I0
sg93
I0
sg57
I0
sg287
I0
sg189
I19
sS'Farmer'
p332
I0
sg257
I0
sg12
I2
sg91
I1
sg246
I0
sS'Slave'
p333
I0
sg324
I0
sg113
I0
sg233
I0
sg61
I0
sg157
I2
sg258
I0
sg190
I0
sg234
I0
sg288
I0
sg274
I0
sg82
I0
sS'Sally'
p334
I0
sg131
I0
sg92
I0
sg40
I0
sg259
I0
sg47
I0
sg140
I1
sg104
I0
sg80
I1
sg67
I0
sg289
I0
sg30
I0
sg100
I0
sg84
I0
sg128
I0
sg75
I0
sg68
I2
sg260
I0
sS'Hizdahr'
p335
I0
sg8
I12
sg35
I0
sg235
I0
sg38
I0
sg118
I0
sg115
I0
sg18
I0
sg224
I8
sg284
I0
sg236
I0
sg241
I0
sS'Guymon'
p336
I0
sg151
I20
sg52
I11
sg49
I11
sg222
I0
sg238
I0
sg141
I0
sg142
I1
sg177
I0
sg247
I0
sg6
I2
sg183
I0
sg76
I19
sg116
I0
sg299
I2
sg143
I0
sg7
I2
sg280
I0
sg188
I0
sg101
I0
sg310
I0
sg11
I0
sg292
I0
sg293
I0
sg70
I0
sg94
I0
sg294
I0
sg315
I0
sg41
I2
sg197
I0
sg102
I0
sg14
I0
sg305
I0
sg295
I0
sg325
I0
sg205
I0
sg78
I0
sg248
I0
sg172
I0
sg51
I0
sg316
I0
sg171
I0
sg33
I0
sg173
I0
sg59
I0
sg152
I2
sg261
I3
sg296
I0
sg174
I19
sg20
I0
sg120
I0
sg175
I0
sg206
I0
sg158
I0
sS"Mole's"
p337
I0
sg129
I1
sg229
I0
sg121
I19
sg50
I0
sg263
I0
sg300
I0
sg270
I0
sg160
I0
sg103
I0
sg165
I2
sg251
I13
sg161
I0
sg69
I0
sg297
I0
sg266
I0
sg37
I0
sg46
I2
sg276
I0
sg150
I0
sg71
I0
sg39
I19
sg202
I0
sg144
I0
sg217
I0
sg245
I0
sg122
I0
sg62
I0
sg264
I0
sg42
I0
sg239
I0
sg317
I0
sg2
I0
sg218
I0
sg3
I0
sg4
I0
sg5
I0
sg123
I21
sg86
I0
sg55
I0
sS'Oznak'
p338
I0
sg124
I1
sg163
I19
sg168
I0
sg178
I0
sg9
I0
sg275
I0
sg314
I0
sg250
I0
sg318
I0
sg301
I0
sg60
I0
sg298
I3
sg319
I0
sg252
I0
sg192
I0
sg240
I0
sg95
I0
sg208
I0
sg125
I0
sg77
I0
sg119
I0
sg320
I0
sg145
I0
sg303
I0
sg96
I1
sg48
I1
sg19
I0
sg304
I0
sg180
I0
sg327
I0
sg181
I0
sg22
I2
sg153
I0
sg79
I0
sg25
I1
sg64
I0
sg56
I2
sg81
I0
sg210
I2
sg182
I0
sg127
I0
sg105
I0
sg277
I0
sg176
I0
sg265
I0
sg27
I0
sg232
I0
sg54
I2
sg159
I0
sg285
I0
sg65
I0
sg321
I0
sg262
I0
sg26
I0
sg29
I25
sg242
I0
sg31
I1
sg164
I20
sg139
I0
sg24
I1
sg146
I0
sg34
I0
sg237
I0
sg207
I1
sg130
I0
sg228
I0
sg253
I0
sg211
I15
sg179
I19
sg322
I0
sg225
I0
sg219
I13
sg212
I0
sg28
I0
sg117
I21
sg302
I0
sg63
I0
sg213
I15
sg306
I0
sg267
I0
sa(dp339
g272
I0
sg185
I0
sg210
I2
sg215
I0
sg275
I0
sg88
I0
sg320
I0
sg58
I0
sg50
I0
sg256
I0
sg10
I0
sg55
I0
sg133
I21
sg269
I0
sg291
I0
sg134
I0
sg13
I0
sg273
I0
sg107
I0
sg160
I0
sg16
I0
sg17
I0
sg48
I1
sg21
I1
sg167
I1
sg227
I2
sg201
I2
sg194
I1
sg313
I0
sg108
I0
sg244
I2
sg186
I0
sg231
I0
sg191
I0
sg329
I0
sg274
I0
sg136
I0
sg282
I0
sg179
I19
sg97
I0
sg195
I0
sg83
I1
sg99
I0
sg309
I0
sg85
I0
sg66
I22
sg196
I0
sg187
I0
sg279
I0
sg69
I0
sg137
I0
sg89
I2
sg32
I0
sg109
I0
sg143
I0
sg169
I0
sg203
I0
sg204
I0
sg138
I1
sg90
I19
sg110
I0
sg334
I0
sg36
I0
sg297
I0
sg170
I1
sg148
I0
sg330
I0
sg155
I0
sg149
I0
sg92
I0
sg267
I0
sg111
I2
sg331
I0
sg43
I1
sg112
I0
sg156
I2
sg252
I0
sg81
I0
sg45
I0
sg188
I0
sg57
I0
sg287
I0
sg283
I2
sg308
I0
sg257
I0
sg336
I0
sg54
I2
sg12
I2
sg91
I1
sg246
I0
sg333
I0
sg324
I0
sg113
I0
sg233
I0
sg61
I0
sg157
I2
sg258
I0
sg79
I0
sg39
I19
sg234
I0
sg288
I0
sg135
I0
sg114
I0
sg306
I0
sg23
I0
sg40
I0
sg259
I0
sg47
I0
sg140
I1
sg127
I0
sg80
I1
sg262
I0
sg65
I0
sg217
I0
sg100
I0
sg84
I0
sg277
I0
sg245
I0
sg237
I0
sg265
I0
sg68
I2
sg77
I0
sg260
I0
sg335
I0
sg181
I0
sg228
I0
sg35
I0
sg28
I0
sg235
I0
sg38
I0
sg9
I0
sg197
I0
sg115
I0
sg18
I0
sg284
I0
sg236
I0
sg205
I0
sg6
I2
sg72
I0
sg151
I20
sg52
I11
sg49
I11
sg317
I0
sg238
I0
sg14
I0
sg142
I1
sg292
I0
sg247
I0
sg75
I0
sg183
I0
sg76
I19
sg116
I0
sg216
I0
sg7
I2
sg280
I0
sg93
I0
sg101
I0
sg310
I0
sg11
I0
sg158
I0
sg293
I0
sg29
I25
sg294
I0
sg315
I0
sg119
I0
sg118
I0
sg242
I0
sg141
I0
sg295
I0
sg325
I0
sg102
I0
sg78
I0
sg248
I0
sg172
I0
sg316
I0
sg171
I0
sg24
I1
sg173
I0
sg152
I2
sg261
I3
sg296
I0
sg174
I19
sg20
I0
sg120
I0
sg224
I8
sg206
I0
sg337
I0
sg129
I1
sg229
I0
sg121
I19
sg326
I2
sg263
I0
sg270
I0
sg15
I0
sg103
I0
sg165
I2
sg251
I13
sg161
I0
sg249
I0
sS'Ser'
p340
I0
sg162
I0
sg266
I0
sg37
I0
sg46
I2
sg276
I0
sg150
I0
sg71
I0
sg190
I0
sg202
I0
sg144
I0
sg289
I0
sg189
I19
sg122
I0
sg62
I0
sg264
I0
sg211
I15
sg239
I0
sg177
I0
sg2
I0
sg218
I0
sg3
I0
sg4
I0
sg299
I2
sg123
I21
sg86
I0
sg332
I0
sg117
I21
sg338
I0
sg163
I19
sg300
I0
sg178
I0
sg8
I12
sg124
I1
sg222
I0
sg250
I0
sg318
I0
sg301
I0
sg60
I0
sg298
I3
sg319
I0
sg63
I0
sg192
I0
sg240
I0
sg208
I0
sg125
I0
sg241
I0
sg198
I17
sg209
I0
sg303
I0
sg96
I1
sg311
I0
sg5
I0
sg304
I0
sg180
I0
sg327
I0
sg168
I0
sg19
I0
sg59
I0
sg153
I0
sg254
I2
sg25
I1
sg64
I0
sg56
I2
sg126
I0
sg82
I0
sg182
I0
sg104
I0
sg105
I0
sg128
I0
sg176
I0
sg175
I0
sg27
I0
sg139
I0
sg305
I0
sg159
I0
sg285
I0
sg145
I0
sg321
I0
sg67
I0
sg26
I0
sg94
I0
sg30
I0
sg31
I1
sg164
I20
sg232
I0
sg33
I0
sg146
I0
sg34
I0
sg41
I2
sg207
I1
sg130
I0
sg70
I0
sg253
I0
sg42
I0
sg131
I0
sg322
I0
sg225
I0
sg314
I0
sg212
I0
sg51
I0
sg95
I0
sg22
I2
sg302
I0
sg213
I15
sg73
I22
sg219
I13
sS'Morag'
p341
I0
sa(dp342
g256
I0
sg272
I0
sg185
I0
sg215
I0
sg22
I2
sg88
I0
sg189
I20
sg72
I0
sg209
I0
sg58
I0
sg237
I0
sg308
I0
sg10
I0
sg133
I22
sg269
I0
sg291
I0
sg134
I0
sg13
I0
sg273
I0
sg107
I0
sg15
I0
sg16
I0
sg17
I0
sg311
I0
sg21
I1
sg254
I2
sg167
I1
sg227
I2
sg201
I2
sg194
I1
sg313
I0
sg108
I0
sg244
I2
sg186
I0
sg231
I0
sg191
I0
sg329
I0
sg135
I0
sg136
I0
sg282
I0
sg97
I0
sg195
I0
sg83
I1
sg99
I0
sg309
I0
sg85
I0
sg73
I23
sg66
I23
sg196
I0
sg187
I0
sg279
I0
sg249
I0
sg137
I0
sg89
I2
sg32
I0
sg109
I0
sg216
I0
sg169
I0
sg203
I0
sg204
I0
sg138
I1
sg90
I19
sg110
I0
sg114
I0
sg36
I0
sg162
I0
sg170
I1
sg148
I0
sg330
I0
sg155
I0
sg149
I0
sg126
I0
sg23
I0
sg177
I0
sg219
I13
sg111
I2
sg331
I0
sg43
I1
sg112
I0
sg146
I0
sg156
I2
sg79
I0
sg45
I0
sg93
I0
sg57
I0
sg287
I0
sg283
I2
sS'Donnel'
p343
I0
sg55
I0
sg257
I0
sg175
I0
sg12
I2
sg91
I1
sg246
I0
sg333
I0
sg324
I0
sg113
I0
sg233
I0
sg61
I0
sg157
I2
sg258
I0
sg190
I0
sg234
I0
sg288
I0
sg274
I0
sg82
I0
sg334
I0
sg92
I0
sg40
I0
sg259
I0
sg47
I0
sg140
I1
sg104
I0
sg80
I1
sg289
I0
sg30
I0
sg100
I0
sg84
I0
sg128
I0
sg75
I0
sg261
I3
sg68
I2
sg260
I0
sg335
I0
sg326
I3
sg35
I0
sg235
I0
sg38
I0
sg118
I0
sg115
I0
sg18
I0
sg208
I0
sg284
I0
sg236
I0
sg336
I0
sg151
I21
sg52
I11
sg49
I11
sg222
I0
sg238
I0
sg141
I0
sg142
I1
sg153
I0
sg292
I0
sg247
I0
sg6
I2
sg67
I0
sg76
I19
sg116
I0
sg299
I2
sg143
I0
sg7
I2
sg280
I0
sg188
I0
sg101
I0
sg310
I0
sg11
I0
sg158
I0
sg293
I0
sg70
I0
sg94
I0
sg294
I0
sg315
I0
sg41
I2
sg197
I0
sg102
I0
sg14
I0
sg168
I0
sg295
I0
sg325
I0
sg205
I0
sg78
I0
sg248
I0
sg172
I0
sg51
I0
sg316
I0
sg171
I0
sg33
I0
sg173
I0
sg152
I2
sg119
I0
sg296
I0
sg174
I20
sg20
I0
sg120
I0
sg224
I8
sg275
I0
sg228
I0
sg129
I1
sg229
I0
sg121
I19
sg50
I0
sg263
I0
sg300
I0
sg270
I0
sg160
I0
sg103
I0
sg165
I2
sg161
I0
sg69
I0
sg340
I0
sg297
I0
sg266
I0
sg37
I0
sg46
I2
sg276
I0
sg150
I0
sg71
I0
sg39
I19
sg202
I0
sg144
I0
sg217
I0
sg245
I0
sg122
I0
sg62
I0
sg264
I0
sg42
I0
sg239
I0
sg317
I0
sg2
I0
sg218
I0
sg3
I0
sg4
I0
sg54
I2
sg123
I22
sg86
I0
sg332
I0
sg338
I0
sg163
I19
sg251
I14
sg178
I0
sg8
I12
sg124
I1
sg9
I0
sg318
I0
sg301
I0
sg60
I0
sg298
I3
sg319
I0
sg206
I0
sg192
I0
sg240
I0
sg95
I0
sg179
I20
sg125
I0
sg77
I0
sg198
I18
sg320
I0
sg145
I0
sg303
I0
sg96
I1
sg48
I1
sg5
I0
sg304
I0
sg180
I0
sg327
I0
sg181
I0
sg19
I0
sg59
I0
sg241
I0
sg252
I0
sg25
I1
sg64
I0
sg56
I2
sg81
I0
sg210
I2
sg182
I0
sg127
I0
sg105
I0
sg277
I0
sg176
I0
sg265
I0
sg27
I0
sg232
I0
sg250
I0
sg159
I0
sg285
I0
sg65
I0
sg321
I0
sg183
I0
sg26
I0
sg29
I26
sg242
I0
sg31
I1
sg164
I21
sg139
I0
sg24
I1
sg305
I0
sg34
I0
sg262
I0
sg207
I1
sg130
I0
sg337
I0
sg253
I0
sg211
I15
sg131
I0
sg322
I0
sg225
I0
sg314
I0
sg212
I0
sg28
I0
sg117
I22
sg302
I0
sg63
I0
sg213
I15
sg306
I0
sg267
I0
sg341
I0
sa(dp344
g198
I18
sg272
I0
sg185
I0
sg210
I2
sg241
I0
sg215
I0
sg88
I0
sg320
I0
sg58
I0
sg50
I0
sg256
I0
sg10
I0
sg133
I22
sg269
I0
sg291
I0
sg134
I0
sg13
I0
sg273
I0
sS'Tycho'
p345
I0
sg160
I0
sg16
I0
sg17
I0
sg48
I1
sg21
I1
sg167
I1
sg227
I2
sg201
I2
sg194
I1
sg313
I0
sg108
I0
sg244
I2
sg186
I0
sg231
I0
sg191
I0
sg329
I0
sg274
I0
sg136
I0
sg282
I0
sg97
I0
sg195
I0
sg83
I1
sg99
I0
sg309
I0
sg85
I0
sS'Lhara'
p346
I0
sg196
I0
sg187
I0
sg279
I0
sg69
I0
sg137
I0
sg89
I2
sg32
I0
sg109
I0
sg143
I0
sg169
I0
sg203
I0
sg204
I0
sg138
I1
sg90
I19
sg110
I0
sg334
I0
sg36
I0
sg297
I0
sg170
I1
sg148
I0
sg330
I0
sg155
I0
sg149
I0
sg92
I0
sg332
I0
sg111
I2
sg331
I0
sg43
I1
sg112
I0
sg156
I2
sg254
I2
sg81
I0
sg45
I0
sg188
I0
sg57
I0
sg287
I0
sg189
I20
sg343
I0
sg308
I0
sg257
I0
sg336
I0
sg12
I2
sg91
I1
sg246
I0
sg333
I0
sg324
I0
sg113
I0
sg233
I0
sg61
I0
sg157
I2
sg258
I0
sg39
I19
sg234
I0
sg288
I0
sg135
I0
sg114
I0
sg306
I0
sg23
I0
sg40
I0
sg259
I0
sg47
I0
sg140
I1
sg127
I0
sg80
I1
sg262
I0
sg65
I0
sg217
I0
sg100
I0
sg84
I0
sg277
I0
sg314
I0
sg245
I0
sg28
I0
sg265
I0
sg68
I2
sg260
I0
sg261
I3
sg35
I0
sg235
I0
sg38
I0
sS'Goatherd'
p347
I0
sg9
I0
sg197
I0
sg115
I0
sg18
I0
sg284
I0
sg236
I0
sg205
I0
sg6
I2
sg72
I0
sg151
I21
sg52
I12
sg49
I12
sg317
I0
sg238
I0
sg14
I0
sg142
I1
sg208
I0
sg247
I0
sg75
I0
sg183
I0
sg76
I19
sg116
I0
sg216
I0
sg7
I2
sg280
I0
sg107
I0
sg93
I0
sg101
I0
sg310
I0
sg11
I0
sg292
I0
sg293
I0
sg29
I26
sg294
I0
sg315
I0
sg41
I2
sg118
I0
sg242
I0
sg141
I0
sg305
I0
sg295
I0
sg325
I0
sg102
I0
sg78
I0
sg248
I0
sg172
I0
sg316
I0
sg171
I0
sg24
I1
sg173
I0
sg59
I0
sg152
I2
sg335
I0
sg296
I0
sg174
I20
sg20
I0
sg120
I0
sg175
I0
sg51
I0
sg158
I0
sg228
I0
sg252
I0
sg129
I1
sg229
I0
sg121
I19
sg326
I3
sg263
I0
sg300
I0
sg270
I0
sg15
I0
sg103
I0
sg165
I2
sg251
I14
sg161
I0
sg249
I0
sg340
I0
sg162
I0
sg337
I0
sg266
I0
sg37
I0
sg46
I2
sg276
I0
sg150
I0
sg71
I0
sg190
I0
sg202
I0
sg144
I0
sg289
I0
sg283
I2
sg122
I0
sg62
I0
sg264
I0
sg211
I15
sg239
I0
sg177
I0
sg2
I0
sg218
I0
sg3
I0
sg4
I0
sg299
I2
sg123
I22
sg86
I0
sg55
I0
sg117
I22
sg338
I0
sg124
I1
sg163
I19
sg168
I0
sg178
I0
sg8
I13
sg275
I0
sg222
I0
sg250
I0
sg318
I0
sg301
I0
sg60
I0
sg298
I3
sg319
I0
sg206
I0
sg192
I0
sg240
I0
sg179
I20
sg125
I0
sg77
I0
sg119
I0
sg209
I0
sg303
I0
sg96
I1
sg311
I0
sg5
I0
sg304
I0
sg180
I0
sg327
I0
sg181
I0
sg19
I0
sg22
I2
sg153
I0
sg79
I0
sg25
I1
sg64
I0
sg56
I2
sg126
I0
sg82
I0
sg182
I0
sg104
I0
sg105
I0
sg128
I0
sg176
I0
sg224
I9
sg27
I0
sg139
I0
sg54
I2
sg159
I0
sg285
I0
sg145
I0
sg321
I0
sg67
I0
sg26
I0
sg94
I0
sg30
I0
sg31
I1
sg164
I21
sg232
I0
sg33
I0
sg146
I0
sg34
I0
sg237
I0
sg207
I1
sg130
I0
sg70
I0
sg253
I0
sg42
I0
sg131
I0
sg322
I0
sg225
I0
sg219
I13
sg212
I0
sg66
I23
sg95
I0
sg302
I0
sg63
I0
sg213
I15
sg73
I23
sg267
I0
sg341
I0
sa(dp348
g256
I0
sg272
I0
sg185
I0
sg215
I0
sg275
I0
sg88
I0
sg283
I2
sg72
I0
sg209
I0
sg58
I0
sg326
I3
sg308
I0
sg10
I0
sg55
I0
sg133
I22
sg269
I0
sg291
I0
sg134
I0
sg13
I0
sg273
I0
sg345
I0
sg15
I0
sg16
I0
sg17
I0
sg311
I0
sg21
I1
sg167
I1
sg227
I2
sg201
I2
sg194
I1
sg313
I0
sg108
I0
sg244
I2
sg186
I0
sg231
I0
sg191
I0
sg329
I0
sg135
I0
sg136
I0
sg282
I0
sg97
I0
sg195
I0
sg83
I1
sg99
I0
sg309
I0
sg85
I0
sg73
I23
sg346
I0
sg196
I0
sg187
I0
sg279
I0
sg249
I0
sg137
I0
sg89
I2
sg32
I0
sg109
I0
sg216
I0
sg169
I0
sg203
I0
sg204
I0
sg138
I1
sg90
I19
sg110
I0
sg114
I0
sg36
I0
sg162
I0
sg170
I1
sg148
I0
sg330
I0
sg155
I0
sg149
I0
sg126
I0
sg23
I0
sg177
I0
sg111
I2
sg331
I0
sg43
I1
sg112
I0
sg156
I2
sg252
I0
sg45
I0
sg93
I0
sg57
I0
sg287
I0
sg189
I20
sg343
I0
sg332
I0
sg257
I0
sg54
I2
sg12
I2
sg91
I1
sg246
I0
sg333
I0
sg324
I0
sg113
I0
sg233
I0
sg61
I0
sg157
I2
sg258
I0
sg79
I0
sg190
I0
sg234
I0
sg288
I0
sg274
I0
sg82
I0
sg334
I0
sg92
I0
sg40
I0
sg259
I0
sg47
I0
sg140
I1
sg104
I0
sg80
I1
sg289
I0
sg30
I0
sg100
I0
sg84
I0
sg128
I0
sg237
I0
sg75
I0
sg68
I2
sg77
I0
sg260
I0
sg261
I3
sg181
I0
sg8
I13
sg35
I0
sg235
I0
sg38
I0
sg347
I0
sg118
I0
sg115
I0
sg18
I0
sg224
I9
sg284
I0
sg236
I0
sg336
I0
sg151
I21
sg52
I12
sg49
I12
sg222
I0
sg238
I0
sg141
I0
sg142
I1
sg208
I0
sg247
I0
sg6
I2
sg67
I0
sg76
I19
sg116
I0
sg143
I0
sg7
I2
sg280
I0
sg107
I0
sg188
I0
sg101
I0
sg310
I0
sg66
I23
sg11
I0
sg292
I0
sg293
I0
sg70
I0
sg94
I0
sg294
I0
sg315
I0
sg119
I0
sg41
I2
sg197
I0
sg102
I0
sg14
I0
sg295
I0
sg325
I0
sg205
I0
sg78
I0
sg248
I0
sg172
I0
sg316
I0
sg171
I0
sg33
I0
sg173
I0
sg159
I0
sg152
I2
sg335
I0
sg296
I0
sg174
I20
sg20
I0
sg120
I0
sg175
I0
sg51
I0
sg158
I0
sg228
I0
sg129
I1
sg229
I0
sg121
I19
sg50
I0
sg263
I0
sg270
I0
sg160
I0
sg103
I0
sg165
I2
sg251
I14
sg161
I0
sg69
I0
sg340
I0
sg297
I0
sg266
I0
sg37
I0
sg46
I2
sg276
I0
sg150
I0
sg71
I0
sg39
I19
sg202
I0
sg144
I0
sg217
I0
sg245
I0
sg122
I0
sg62
I0
sg264
I0
sg42
I0
sg239
I0
sg317
I0
sg2
I0
sg218
I0
sg3
I0
sS'Dying'
p349
I0
sg299
I2
sg123
I22
sg86
I0
sg59
I0
sg338
I0
sg163
I19
sg300
I0
sg178
I0
sg9
I0
sg124
I1
sg314
I0
sg250
I0
sg318
I0
sg301
I0
sg60
I0
sg298
I3
sg319
I0
sg206
I0
sg192
I0
sg240
I0
sg95
I0
sg179
I20
sg125
I0
sg241
I0
sg198
I18
sg320
I0
sg145
I0
sg303
I0
sg96
I1
sg48
I1
sg4
I0
sg304
I0
sg180
I0
sg327
I0
sg168
I0
sg19
I0
sg22
I2
sg153
I0
sg254
I2
sg25
I1
sg64
I0
sg56
I2
sg81
I0
sg210
I2
sg182
I0
sg127
I0
sg105
I0
sg277
I0
sg176
I0
sg265
I0
sg27
I0
sg232
I0
sg305
I0
sg5
I0
sg285
I0
sg65
I0
sg321
I0
sg183
I0
sg26
I0
sg29
I26
sg242
I0
sg31
I1
sg164
I21
sg139
I0
sg24
I1
sg146
I0
sg34
I0
sg262
I0
sg207
I1
sg130
I0
sg337
I0
sg253
I0
sg211
I15
sg131
I0
sg322
I0
sg225
I0
sg219
I13
sg212
I0
sg28
I0
sg117
I22
sg302
I0
sg63
I0
sg213
I15
sg306
I0
sg267
I0
sg341
I0
sa(dp350
g272
I0
sg185
I0
sg210
I2
sg130
I0
sg215
I0
sg22
I2
sg88
I0
sg320
I0
sg58
I0
sg50
I0
sg256
I0
sg10
I0
sg122
I0
sg133
I22
sg269
I0
sg291
I0
sg134
I0
sg13
I0
sg273
I0
sg345
I0
sg160
I0
sg16
I0
sg17
I0
sg48
I1
sg21
I1
sg254
I2
sg167
I1
sg227
I2
sg201
I2
sg194
I1
sg313
I0
sg108
I0
sg244
I2
sg186
I0
sg231
I0
sg191
I0
sg329
I0
sg135
I0
sg136
I0
sg282
I0
sg97
I0
sg195
I0
sg83
I1
sg99
I0
sg309
I0
sS'Adrack'
p351
I0
sg85
I0
sg346
I0
sg196
I0
sg187
I0
sg279
I0
sg69
I0
sg137
I0
sg89
I2
sg32
I0
sg109
I0
sg143
I0
sg169
I0
sg203
I0
sg204
I0
sg138
I1
sg90
I19
sg110
I0
sg334
I0
sg36
I0
sg297
I0
sg170
I1
sg148
I0
sg330
I0
sg155
I0
sg149
I0
sg92
I0
sg153
I0
sg111
I2
sg331
I0
sg43
I1
sg112
I0
sg146
I0
sg156
I2
sg79
I0
sg81
I0
sg45
I0
sg188
I0
sg57
I0
sg287
I0
sg283
I2
sg343
I0
sg55
I0
sg257
I0
sS'Mully'
p352
I0
sg336
I0
sg12
I2
sg91
I1
sg246
I0
sg333
I0
sg324
I0
sg113
I0
sg233
I0
sg61
I0
sg157
I2
sg258
I0
sg39
I19
sg234
I0
sg288
I0
sS'Kegs'
p353
I0
sg242
I0
sg114
I0
sg306
I0
sg23
I0
sg40
I0
sg259
I0
sg47
I0
sS'Vance'
p354
I0
sg127
I0
sg80
I1
sg183
I0
sg262
I0
sg65
I0
sg217
I0
sg100
I0
sg84
I0
sg277
I0
sg245
I0
sg28
I0
sg265
I0
sg68
I2
sg260
I0
sg261
I3
sg35
I0
sg235
I0
sg38
I0
sg347
I0
sg9
I0
sg197
I0
sg115
I0
sg18
I0
sg284
I0
sg236
I0
sg205
I0
sg6
I2
sg72
I0
sg151
I21
sg52
I12
sg49
I12
sg317
I0
sg238
I0
sg14
I0
sg142
I1
sg208
I0
sg247
I0
sg75
I0
sg335
I0
sg76
I19
sg116
I0
sg299
I2
sg216
I0
sg7
I2
sg280
I0
sg107
I0
sg93
I0
sg101
I0
sS'Ralf'
p355
I0
sg11
I0
sg292
I0
sg293
I0
sg29
I26
sg294
I0
sg315
I0
sg41
I2
sg118
I0
sg102
I0
sg141
I0
sg168
I0
sg295
I0
sg325
I0
sg274
I0
sg308
I0
sg248
I0
sg172
I0
sg78
I0
sg316
I0
sg171
I0
sg24
I1
sg173
I0
sg152
I2
sg119
I0
sg296
I0
sg174
I20
sg20
I0
sg120
I0
sg224
I9
sg60
I0
sg275
I0
sg158
I0
sg228
I0
sg129
I1
sg229
I0
sg121
I19
sg117
I22
sg326
I3
sg263
I0
sg300
I0
sg270
I0
sg15
I0
sg103
I0
sg165
I2
sg161
I0
sg249
I0
sg340
I0
sg162
I0
sg337
I0
sg266
I0
sg37
I0
sg46
I2
sg276
I0
sg150
I0
sg71
I0
sg190
I0
sg159
I0
sg144
I0
sg289
I0
sg189
I20
sg202
I0
sg62
I0
sg264
I0
sg211
I15
sg239
I0
sg177
I0
sg2
I0
sg218
I0
sg3
I0
sg349
I0
sg54
I2
sg123
I22
sg86
I0
sg332
I0
sg310
I0
sg338
I0
sg124
I1
sg163
I19
sg251
I14
sg178
I0
sg8
I13
sg140
I1
sg222
I0
sg318
I0
sg301
I0
sS'Anya'
p356
I0
sg298
I3
sg319
I0
sg206
I0
sg192
I0
sg240
I0
sg179
I20
sg125
I0
sg77
I0
sg198
I18
sg212
I0
sg209
I0
sg303
I0
sg96
I1
sg311
I0
sg4
I0
sg304
I0
sg180
I0
sg327
I0
sg181
I0
sg19
I0
sg59
I0
sg241
I0
sg252
I0
sS'Daemon'
p357
I0
sg25
I1
sg64
I0
sg56
I2
sg126
I0
sg82
I0
sg182
I0
sg104
I0
sg105
I0
sg128
I0
sg176
I0
sg175
I0
sg27
I0
sg139
I0
sg250
I0
sg5
I0
sg285
I0
sg145
I0
sg321
I0
sg67
I0
sg26
I0
sg94
I0
sg30
I0
sg31
I1
sg164
I21
sg232
I0
sg33
I0
sg305
I0
sg34
I0
sg237
I0
sg207
I1
sS'Yohn'
p358
I0
sg70
I0
sg253
I0
sg42
I0
sg131
I0
sg322
I0
sg225
I0
sg314
I0
sg51
I0
sg66
I23
sg95
I0
sg267
I0
sg302
I0
sg63
I0
sg213
I15
sg73
I23
sg219
I13
sg341
I0
sa(dp359
g295
I0
sg272
I0
sg185
I0
sg358
I0
sg215
I0
sg88
I0
sg189
I21
sg72
I0
sg209
I0
sg58
I0
sg326
I4
sg256
I0
sg10
I0
sg133
I23
sg269
I0
sg291
I0
sg51
I0
sg134
I0
sg13
I0
sg273
I0
sg345
I0
sg15
I0
sg16
I0
sg17
I0
sS'Hobb'
p360
I0
sg21
I1
sg167
I1
sg227
I2
sg201
I2
sg194
I1
sg313
I0
sg108
I0
sg244
I2
sg186
I0
sg231
I0
sg191
I0
sg329
I0
sg353
I0
sg136
I0
sg282
I0
sg97
I0
sg195
I0
sg83
I1
sg311
I0
sg99
I0
sg309
I0
sg351
I1
sg85
I0
sg73
I24
sg346
I0
sg196
I0
sg187
I0
sg279
I0
sg249
I0
sg137
I0
sg89
I2
sg32
I0
sg109
I0
sg216
I0
sg169
I0
sg203
I0
sg204
I0
sg138
I1
sg90
I19
sg110
I0
sS'Dongo'
p361
I0
sg36
I0
sg162
I0
sg170
I1
sg148
I0
sg330
I0
sg155
I0
sg149
I0
sg126
I0
sg23
I0
sg177
I0
sg219
I13
sg111
I2
sg331
I0
sg43
I1
sg112
I0
sg156
I2
sg254
I2
sg45
I0
sg93
I0
sg57
I0
sg287
I0
sg283
I2
sg343
I0
sg55
I0
sg257
I0
sg352
I0
sg175
I0
sg12
I2
sg91
I1
sg246
I0
sg333
I0
sg324
I0
sg113
I0
sg233
I0
sg61
I0
sg157
I2
sg19
I0
sg258
I0
sg190
I0
sg234
I0
sg288
I0
sg135
I0
sg82
I0
sg222
I0
sg334
I0
sg92
I0
sg40
I0
sg259
I0
sg47
I0
sg354
I0
sg104
I0
sg80
I1
sg289
I0
sg30
I0
sg100
I0
sg84
I0
sg128
I0
sg237
I0
sg75
I0
sg68
I2
sg198
I19
sg260
I0
sg261
I3
sg35
I0
sg235
I0
sg38
I0
sg347
I0
sg118
I0
sg115
I0
sg18
I0
sg202
I0
sg284
I0
sg236
I0
sg241
I0
sg336
I0
sg151
I22
sg52
I13
sg49
I13
sS'Smitty'
p362
I0
sg238
I0
sg141
I0
sS'Cooper'
p363
I0
sg208
I0
sg247
I0
sg6
I2
sg67
I0
sg76
I19
sg116
I0
sg143
I0
sg7
I2
sg280
I0
sg107
I0
sg188
I0
sg101
I0
sg355
I0
sg66
I24
sg11
I0
sg292
I0
sg293
I0
sg70
I0
sg94
I0
sg294
I0
sg315
I0
sg41
I2
sg197
I0
sg102
I0
sg14
I0
sg305
I0
sg114
I0
sg325
I0
sg205
I0
sg308
I0
sg248
I0
sg172
I0
sg304
I0
sg78
I0
sg316
I0
sg171
I0
sg33
I0
sg173
I0
sg59
I0
sg152
I2
sg335
I0
sg296
I0
sg174
I21
sg20
I0
sg120
I0
sg224
I10
sg275
I0
sg158
I0
sg228
I0
sg252
I0
sg129
I1
sg229
I0
sg121
I19
sg50
I0
sg263
I0
sg300
I0
sg270
I0
sg160
I0
sg103
I0
sg165
I2
sg251
I15
sg161
I0
sg69
I0
sg340
I0
sg297
I0
sg274
I0
sg266
I0
sg37
I0
sg46
I2
sg276
I0
sg150
I0
sg71
I0
sg39
I19
sg159
I0
sg144
I0
sg217
I0
sg245
I0
sg122
I0
sg62
I0
sg264
I0
sg42
I0
sg239
I0
sg140
I1
sg317
I0
sg2
I0
sg218
I0
sg3
I0
sg349
I0
sg299
I2
sg123
I23
sg86
I0
sg332
I0
sg310
I0
sg338
I0
sg163
I19
sg168
I0
sg178
I0
sg8
I14
sg124
I1
sg9
I0
sg250
I0
sg318
I0
sg301
I0
sg60
I0
sg298
I3
sg319
I0
sg206
I0
sg192
I0
sg240
I0
sg95
I0
sg179
I21
sg125
I0
sg77
I0
sg119
I0
sg320
I0
sg145
I0
sg303
I0
sg96
I1
sg48
I1
sg4
I0
sS'Mag'
p364
I0
sg180
I0
sg327
I0
sg181
I0
sg356
I1
sg22
I2
sg153
I0
sg79
I0
sg357
I0
sg25
I1
sg64
I0
sg56
I2
sg81
I0
sg210
I2
sg182
I0
sg127
I0
sg105
I0
sg277
I0
sg176
I0
sg265
I0
sg27
I0
sg232
I0
sg54
I2
sg5
I0
sg285
I0
sg65
I0
sg321
I0
sg183
I0
sg26
I0
sg29
I27
sg242
I0
sg31
I1
sg164
I22
sg139
I0
sg24
I1
sg146
I0
sg34
I0
sg262
I0
sg207
I1
sg130
I0
sg337
I0
sg253
I0
sg211
I15
sg131
I0
sg322
I0
sg142
I1
sg225
I0
sg314
I0
sg212
I0
sg28
I0
sg117
I23
sg302
I0
sg63
I0
sg213
I15
sg306
I0
sg267
I0
sg341
I0
sa(dp365
S'Leaf'
p366
I0
sg272
I0
sg185
I0
sg210
I2
sg130
I0
sS'Ternesio'
p367
I0
sS'Three-eyed'
p368
I0
sg22
I2
sg88
I0
sg320
I0
sg58
I0
sg50
I0
sg256
I0
sg10
I0
sS'Kullback'
p369
I0
sg133
I23
sg269
I0
sg291
I0
sg134
I0
sg13
I0
sg273
I0
sg96
I1
sg345
I0
sg160
I0
sg16
I0
sg17
I0
sg360
I2
sg21
I1
sg167
I1
sg227
I2
sg201
I2
sg194
I1
sg313
I0
sg108
I0
sg244
I2
sg186
I0
sg231
I0
sg191
I0
sg329
I0
sg135
I0
sg136
I0
sg282
I0
sg97
I0
sg195
I0
sg83
I1
sg99
I0
sg309
I0
sg351
I1
sg85
I0
sg346
I0
sg215
I0
sg196
I0
sg187
I0
sg279
I0
sg69
I0
sg137
I0
sg89
I2
sg32
I0
sg109
I0
sg143
I0
sg169
I0
sg203
I0
sg204
I0
sg138
I1
sg90
I21
sg110
I0
sg334
I0
sg36
I0
sg297
I0
sg170
I1
sg148
I0
sg330
I0
sg155
I0
sg149
I0
sg92
I0
sS'Fennesz'
p370
I0
sg111
I2
sg331
I0
sg43
I1
sg112
I0
sg156
I2
sg252
I0
sg81
I0
sg45
I0
sg188
I0
sg57
I0
sg2
I0
sg287
I0
sg189
I21
sg343
I0
sg55
I0
sg257
I0
sg352
I0
sg336
I0
sg54
I2
sg12
I2
sg91
I1
sg246
I0
sg48
I1
sg333
I0
sg324
I0
sg113
I0
sg233
I0
sg61
I0
sg157
I2
sg258
I0
sg79
I0
sg39
I21
sg234
I0
sg288
I0
sg353
I0
sg337
I0
sg361
I0
sg306
I0
sg23
I0
sg40
I0
sg259
I0
sg47
I0
sg354
I0
sg127
I0
sg80
I1
sg262
I0
sg65
I0
sg161
I0
sg100
I0
sg84
I0
sg277
I0
sg314
I0
sg34
I0
sg245
I0
sg28
I0
sg265
I0
sg364
I0
sg68
I2
sg77
I0
sg260
I0
sg261
I5
sg181
I0
sg35
I0
sg235
I0
sg38
I0
sg347
I0
sg332
I0
sg9
I0
sg197
I0
sg115
I0
sg18
I0
sg114
I0
sg284
I0
sg236
I0
sg205
I0
sg6
I2
sg72
I0
sg151
I22
sg52
I15
sg49
I15
sg362
I0
sg238
I0
sg14
I0
sg363
I0
sg208
I0
sS'Zalla'
p371
I0
sg75
I0
sg183
I0
sg76
I21
sg116
I0
sg216
I0
sg7
I2
sg280
I0
sg107
I0
sg93
I0
sg101
I0
sg355
I0
sg11
I0
sg292
I0
sg293
I0
sg29
I27
sg294
I0
sg315
I0
sg119
I0
sg41
I2
sg118
I0
sg242
I0
sg141
I0
sg295
I0
sg325
I0
sg102
I0
sg308
I0
sg248
I0
sg172
I0
sS'Child'
p372
I0
sg78
I0
sg316
I0
sg171
I0
sg24
I1
sg173
I0
sg152
I2
sg335
I2
sg296
I0
sg174
I21
sg20
I0
sg120
I0
sg175
I0
sg275
I0
sg158
I0
sg228
I0
sg129
I1
sg229
I0
sg121
I21
sg117
I23
sg326
I4
sg263
I0
sg270
I0
sg15
I0
sg103
I0
sg165
I2
sg251
I15
sg202
I0
sg249
I0
sg340
I0
sg162
I0
sg274
I0
sg266
I0
sg37
I0
sg46
I2
sg276
I0
sg150
I0
sg71
I0
sg190
I0
sg159
I0
sg144
I0
sg289
I0
sg283
I2
sg122
I0
sg62
I0
sg264
I0
sg211
I17
sg239
I0
sg177
I0
sg217
I0
sg218
I0
sg3
I0
sg349
I0
sg299
I2
sg123
I23
sg86
I0
sg59
I0
sg310
I0
sg338
I0
sg124
I1
sg163
I21
sg300
I0
sg178
I0
sg8
I16
sg140
I1
sg222
I0
sg250
I0
sg318
I0
sg301
I0
sg60
I0
sg298
I5
sg319
I0
sg206
I0
sg192
I0
sg240
I0
sg179
I21
sg125
I0
sg241
I0
sg198
I19
sg209
I0
sg317
I0
sg303
I0
sg66
I24
sg311
I0
sg19
I0
sg304
I0
sg180
I0
sg327
I0
sg168
I0
sg356
I1
sg247
I0
sg153
I0
sg254
I2
sg357
I0
sg25
I1
sg64
I0
sg56
I2
sg126
I0
sg82
I0
sg182
I0
sg104
I0
sg105
I0
sg128
I0
sg176
I0
sg224
I12
sg27
I0
sg139
I0
sg305
I0
sg5
I0
sg285
I0
sg145
I0
sg321
I0
sg67
I0
sg26
I0
sg94
I0
sg30
I0
sg31
I1
sg164
I22
sg232
I0
sg33
I0
sg146
I0
sg4
I0
sg237
I0
sg207
I1
sg358
I0
sg70
I0
sg253
I0
sg42
I0
sg131
I0
sg322
I0
sg142
I1
sg225
I0
sg219
I15
sg212
I0
sg51
I0
sg95
I0
sg302
I0
sg63
I0
sg213
I17
sg73
I24
sg267
I0
sg341
I0
sa.