(lp0
(dp1
S'Joffrey Baratheon'
p2
I3
sS'Benjen Stark'
p3
I3
sS'Luwin'
p4
I4
sS'Khal'
p5
I5
sS'Robert Baratheon'
p6
I17
sS'Illyrio Mopatis'
p7
I6
sS'Pentoshi servant'
p8
I0
sS'Waymar Royce'
p9
I2
sS'Tyrion Lannister'
p10
I8
sS'Theon Greyjoy'
p11
I4
sS'Jeyne Poole'
p12
I0
sS'Qotho'
p13
I0
sS'Eddard Stark'
p14
I27
sS'Mago'
p15
I0
sS'Rickon Stark'
p16
I2
sS'Bran Stark'
p17
I14
sS'Arya Stark'
p18
I3
sS'Jaime Lannister'
p19
I7
sS'Sandor Clegane'
p20
I0
sS'Mordane'
p21
I0
sS'Catelyn Stark'
p22
I8
sS'Tommy'
p23
I0
sS'Will'
p24
I7
sS'Rodrik Cassel'
p25
I0
sS'Wildling girl'
p26
I0
sS'Viserys Targaryen'
p27
I11
sS'Sansa Stark'
p28
I7
sS'Maester'
p29
I2
sS'Drogo'
p30
I13
sS'Ros'
p31
I2
sS'Daenerys Targaryen'
p32
I10
sS'Jorah Mormont'
p33
I3
sS'Gared'
p34
I2
sS'White Walker 1'
p35
I3
sS'Cersei Lannister'
p36
I9
sS'Hodor'
p37
I0
sS'Robb Stark'
p38
I3
sS'Myrcella Baratheon'
p39
I0
sS'White Walker 2'
p40
I3
sS'Jory Cassel'
p41
I0
sS'Tommen Baratheon'
p42
I0
sS'Jon Snow'
p43
I18
sS'Mikken'
p44
I0
sa(dp45
g2
I14
sg3
I6
sg4
I8
sg5
I8
sg6
I25
sg7
I8
sS'Rast'
p46
I0
sg8
I0
sS'Ilyn Payne'
p47
I2
sg9
I2
sg10
I19
sS'Jhiqui'
p48
I0
sg40
I3
sg11
I7
sg12
I0
sg44
I2
sg13
I0
sg14
I43
sg15
I0
sg16
I2
sS'Irri'
p49
I0
sg17
I27
sg18
I15
sg19
I9
sS'Catspaw assassin'
p50
I0
sg21
I0
sg22
I15
sS'Mycah'
p51
I6
sg23
I0
sg24
I7
sg25
I3
sg26
I0
sg27
I15
sS'Doreah'
p52
I4
sg28
I13
sg29
I3
sg30
I19
sg32
I17
sg33
I5
sg34
I2
sg35
I3
sg36
I12
sg37
I0
sg38
I10
sg42
I0
sg39
I0
sg31
I2
sg41
I0
sg20
I2
sg43
I32
sS'Lannister guardsman'
p53
I2
sa(dp54
g2
I20
sg3
I8
sS'Petyr Baelish'
p55
I1
sg4
I8
sg5
I10
sg6
I30
sg7
I8
sg46
I0
sg8
I0
sg37
I0
sS'Yoren'
p56
I1
sS'Pypar'
p57
I0
sg9
I2
sg14
I53
sg10
I25
sg48
I0
sS'Grand Maester'
p58
I1
sg36
I16
sS"King's Landing whore"
p59
I0
sg11
I7
sg12
I0
sg13
I0
sg40
I5
sg15
I0
sg16
I2
sg49
I2
sg17
I30
sg18
I21
sg19
I14
sg50
I0
sg38
I11
sS'Old Nan'
p60
I2
sg20
I2
sS'Jeor Mormont'
p61
I3
sS'Pycelle'
p62
I1
sg41
I0
sS'Alliser Thorne'
p63
I2
sg21
I0
sg22
I17
sg51
I6
sS'Varys'
p64
I3
sg23
I0
sS'Royal Steward'
p65
I0
sg25
I5
sg26
I0
sg27
I18
sg53
I7
sS'Goldcloak 1'
p66
I0
sg47
I2
sg28
I16
sS'Goldcloak 2'
p67
I0
sS'Rakharo'
p68
I4
sg52
I4
sg29
I5
sS'Barristan Selmy'
p69
I2
sg30
I21
sg31
I2
sg32
I23
sS'Lancel Lannister'
p70
I0
sg33
I8
sg34
I2
sg35
I5
sS'Grenn'
p71
I0
sS'Drunk man'
p72
I0
sg24
I7
sS'Renly Baratheon'
p73
I1
sg39
I0
sS'Syrio Forel'
p74
I2
sg42
I0
sS'Aemon'
p75
I3
sg43
I38
sg44
I2
sa(dp76
g2
I25
sg3
I8
sg55
I2
sg4
I8
sg56
I3
sg5
I13
sg34
I2
sg6
I32
sS'Hugh'
p77
I3
sg72
I0
sg7
I8
sg46
I1
sg8
I0
sS'Janos Slynt'
p78
I0
sg57
I0
sg9
I2
sg10
I39
sg48
I0
sg42
I0
sS'Samwell Tarly'
p79
I7
sg71
I2
sg59
I0
sg11
I13
sg12
I0
sg24
I7
sg13
I0
sg14
I56
sg15
I0
sg16
I2
sg49
I2
sS'Gregor Clegane'
p80
I4
sS'Knight of House Frey'
p81
I0
sg17
I38
sg18
I21
sg19
I17
sg50
I0
sg60
I2
sg74
I2
sg44
I2
sg61
I3
sg62
I2
sS'Tobho Mott'
p82
I1
sS'Gendry'
p83
I1
sg22
I24
sg63
I4
sg21
I2
sS'Marillion'
p84
I3
sg51
I6
sS'Bronn'
p85
I2
sg23
I0
sg65
I0
sS'Kurleket'
p86
I0
sg26
I0
sg47
I2
sg64
I3
sg53
I11
sg66
I0
sg58
I1
sg28
I24
sg67
I0
sg68
I4
sg52
I8
sg29
I5
sg69
I2
sg30
I25
sg31
I3
sg25
I7
sg32
I28
sg70
I0
sg33
I8
sg38
I13
sg75
I3
sg35
I5
sg36
I16
sg37
I1
sS'Willis Wode'
p87
I0
sg73
I1
sS'Masha Heddle'
p88
I0
sg39
I0
sg40
I5
sg41
I3
sg20
I5
sg43
I47
sg27
I25
sa(dp89
g2
I27
sg3
I8
sg55
I2
sg6
I54
sg7
I13
sS'Barra'
p90
I0
sg56
I5
sg9
I2
sg19
I26
sg48
I0
sg80
I10
sg58
I1
sg11
I15
sS'Vardis Egen'
p91
I0
sg13
I0
sg51
I6
sg15
I0
sg84
I3
sg64
I14
sg86
I0
sg26
I0
sS'Heward'
p92
I0
sg33
I8
sg38
I13
sg73
I13
sg39
I0
sg44
I2
sg46
I1
sS'Robin Arryn'
p93
I2
sg57
I0
sS'Mord'
p94
I0
sg10
I54
sg79
I7
sg42
I2
sg40
I5
sg17
I45
sg49
I2
sg60
I2
sg63
I4
sg22
I29
sg85
I5
sg27
I28
sg68
I4
sg24
I7
sg36
I21
sg72
I0
sg88
I0
sg31
I5
sg43
I51
sg77
I9
sg8
I0
sg78
I0
sS'Wyl'
p95
I0
sg20
I11
sg12
I0
sS'Lysa Arryn'
p96
I4
sg61
I3
sg21
I2
sg23
I0
sg52
I8
sg28
I26
sg69
I8
sg32
I32
sg34
I2
sg35
I5
sg71
I2
sg37
I1
sg87
I0
sg4
I13
sg5
I14
sg59
I0
sS'Mhaegen'
p97
I2
sg14
I90
sg16
I2
sg81
I1
sg18
I25
sg50
I0
sg62
I3
sg82
I1
sg83
I1
sg65
I0
sg25
I7
sg66
I0
sg47
I2
sg67
I0
sg29
I7
sS'Joss Stilwood'
p98
I0
sg30
I27
sg74
I2
sg70
I2
sS'Loras Tyrell'
p99
I14
sg41
I8
sg75
I3
sg53
I26
sa(dp100
g2
I32
sg3
I8
sg55
I4
sg6
I68
sg7
I15
sg90
I0
sg56
I5
sg9
I2
sg19
I32
sg48
I0
sg58
I3
sg11
I22
sg91
I8
sg13
I1
sg14
I106
sg15
I0
sS'Eon Hunter'
p101
I0
sg84
I3
sg64
I14
sg86
I0
sg26
I0
sg92
I0
sg33
I18
sg38
I21
sg73
I18
sg39
I0
sg44
I2
sg46
I1
sg93
I3
sg57
I0
sg94
I7
sg10
I74
sg79
I7
sS'Beric Dondarrion'
p102
I2
sg42
I2
sg40
I5
sg17
I53
sg49
I7
sg60
I2
sg63
I4
sg22
I30
sg85
I15
sg27
I42
sg68
I4
sg65
I0
sg36
I27
sg72
I1
sg88
I0
sg31
I8
sS'Knight of House Lynderly'
p103
I0
sg43
I55
sg77
I9
sg8
I0
sg78
I0
sS'Stiv'
p104
I2
sg67
I0
sg20
I11
sg12
I0
sS'Osha'
p105
I4
sg96
I15
sg61
I3
sg80
I13
sg23
I0
sg52
I8
sg28
I32
sS'Steffon'
p106
I0
sg69
I11
sg32
I47
sS'Dothraki crone'
p107
I4
sg34
I2
sg35
I5
sg71
I2
sg37
I3
sg87
I0
sg4
I13
sg5
I16
sS'Joss'
p108
I0
sg59
I0
sg97
I2
sg51
I6
sg16
I2
sg81
I1
sg18
I28
sg50
I0
sg21
I2
sg62
I7
sg82
I1
sg83
I1
sS'Wallen'
p109
I0
sg24
I7
sg25
I8
sg66
I0
sg47
I2
sg95
I0
sg29
I9
sg98
I0
sg30
I41
sg74
I6
sg70
I6
sg99
I14
sg41
I11
sg75
I3
sg53
I36
sa(dp110
g2
I42
sg3
I11
sg55
I4
sg6
I84
sg7
I15
sg90
I0
sg56
I5
sg9
I2
sg19
I38
sg48
I0
sg58
I3
sg11
I26
sS'Joby'
p111
I0
sg91
I8
sg13
I1
sg51
I6
sg15
I0
sg101
I0
sS'Balian'
p112
I0
sg84
I3
sg64
I20
sg86
I0
sg26
I0
sg92
I0
sg33
I25
sg38
I21
sg73
I25
sg39
I0
sS'Rancer'
p113
I0
sg44
I2
sS"Night's Watch Officer 2"
p114
I0
sg46
I1
sg93
I3
sg57
I2
sg94
I7
sg10
I77
sg79
I11
sS'Little Bird'
p115
I0
sg71
I2
sg42
I2
sg83
I1
sg37
I3
sg17
I53
sg49
I7
sS'Wineseller'
p116
I0
sg60
I4
sS'Othell Yarwyck'
p117
I0
sg109
I0
sg63
I6
sg22
I33
sg85
I15
sg27
I42
sg68
I6
sS'Jaremy Rykker'
p118
I0
sg24
I7
sg36
I38
sg72
I1
sg74
I6
sg88
I0
sg31
I11
sg103
I0
sg43
I67
sg77
I9
sS'Niko'
p119
I0
sg8
I0
sg78
I2
sg104
I2
sS'Armeca'
p120
I2
sg95
I0
sS'Toad'
p121
I0
sg20
I11
sg12
I0
sS'Tywin Lannister'
p122
I5
sg105
I8
sg96
I15
sg61
I5
sg80
I13
sS'Echiel'
p123
I0
sg23
I0
sS'Halder'
p124
I0
sg52
I8
sg28
I32
sg106
I0
sg69
I13
sg32
I59
sg107
I6
sg34
I2
sg35
I7
sg102
I2
sg40
I7
sg87
I0
sS'Gordo'
p125
I0
sg99
I16
sg4
I16
sg5
I17
sS'Allo'
p126
I0
sg108
I0
sS'Matthar'
p127
I0
sS'Luke'
p128
I0
sg97
I2
sg14
I132
sg16
I2
sg81
I1
sg18
I28
sg50
I0
sg21
I2
sg62
I7
sg82
I1
sS'Escan'
p129
I0
sS'Varly'
p130
I0
sS'Tomard'
p131
I0
sg65
I0
sg25
I8
sg66
I0
sg47
I2
sg67
I0
sg29
I11
sg98
I0
sg30
I47
sS'Mink'
p132
I0
sS'Vorkoy'
p133
I0
sS'Nelugo'
p134
I0
sg70
I8
sS'Dareon'
p135
I0
sg59
I0
sg41
I11
sg75
I5
sg53
I46
sa(dp136
g2
I49
sg3
I14
sg55
I4
sg6
I85
sg7
I15
sg90
I0
sg56
I5
sg9
I2
sg19
I42
sg48
I0
sg58
I4
sS'Othor'
p137
I0
sg11
I26
sg111
I0
sg91
I8
sg13
I1
sg14
I137
sg15
I3
sg101
I0
sg112
I0
sg84
I3
sg64
I22
sg86
I0
sg26
I0
sS'Shagga'
p138
I2
sg92
I0
sg33
I26
sg38
I31
sg73
I25
sg39
I0
sg113
I0
sg44
I2
sg114
I0
sg46
I1
sg93
I3
sg57
I2
sg94
I7
sg10
I82
sg79
I13
sS'Chella'
p139
I0
sg115
I0
sg102
I2
sg42
I2
sg129
I0
sg40
I9
sg17
I57
sg49
I7
sg116
I0
sg60
I7
sg117
I0
sg130
I0
sg63
I8
sg22
I37
sg85
I18
sg27
I42
sg68
I6
sg118
I0
sg65
I0
sS'Gyles Rosby'
p140
I0
sS'Greatjon Umber'
p141
I1
sg36
I41
sg72
I1
sg88
I0
sg31
I11
sg103
I0
sg43
I74
sg23
I0
sg77
I9
sg119
I0
sg8
I0
sg78
I4
sg104
I2
sg120
I2
sg67
I0
sg121
I0
sg20
I14
sg12
I0
sg122
I10
sg105
I10
sS'Maege Mormont'
p142
I0
sg96
I18
sg61
I7
sg80
I13
sg123
I0
sS'Mirri Maz Duur'
p143
I2
sg132
I0
sg124
I0
sg52
I8
sg28
I41
sg106
I0
sg69
I15
sg32
I64
sg107
I11
sg34
I2
sg35
I9
sg71
I2
sg37
I5
sg87
I0
sS'Vayon Poole'
p144
I0
sg125
I0
sS'Aron Santagar'
p145
I0
sg135
I0
sg4
I18
sg5
I22
sg126
I0
sg108
I0
sg127
I0
sg128
I0
sg97
I2
sg51
I6
sg16
I3
sg81
I1
sg18
I38
sg50
I0
sg21
I5
sg62
I9
sg82
I1
sg83
I1
sg109
I0
sg131
I0
sg24
I7
sg25
I10
sS'Jafer Flowers'
p146
I0
sS'Timett'
p147
I0
sg66
I0
sg47
I2
sg95
I0
sg29
I15
sg98
I0
sg30
I57
sg74
I12
sg133
I0
sg134
I0
sg70
I8
sg99
I16
sS'Meryn Trant'
p148
I3
sS'Galbart Glover'
p149
I0
sS'Kevan Lannister'
p150
I2
sg59
I0
sg41
I11
sg75
I7
sg53
I59
sa(dp151
g2
I54
sg3
I16
sg55
I4
sg6
I89
sg7
I15
sg90
I0
sS'Arwaya Frey'
p152
I0
sg56
I10
sg9
I2
sg19
I52
sg48
I0
sg58
I5
sg137
I0
sg11
I29
sg111
I0
sg91
I8
sg13
I6
sg51
I6
sg15
I5
sg101
I0
sg112
I0
sg84
I3
sg64
I28
sg86
I0
sg26
I0
sg138
I2
sg92
I0
sg33
I34
sg38
I51
sg73
I25
sg39
I0
sg113
I0
sg44
I2
sg114
I0
sS'Joyeuse Erenford'
p153
I0
sg46
I1
sg93
I3
sg57
I2
sg94
I7
sg10
I102
sg79
I15
sg139
I0
sg115
I0
sg71
I2
sg42
I2
sg83
I1
sg37
I5
sg17
I57
sg49
I7
sg116
I0
sg60
I7
sg117
I0
sg143
I5
sg109
I0
sg63
I10
sg22
I42
sg85
I27
sg27
I42
sg68
I6
sg118
I0
sg24
I7
sg140
I0
sg141
I1
sg36
I44
sg72
I1
sg74
I12
sg88
I0
sg31
I11
sg103
I0
sg43
I87
sg77
I9
sg119
I0
sg8
I0
sg78
I4
sS'Shae'
p154
I7
sg104
I2
sg120
I2
sg95
I0
sg121
I0
sg20
I14
sg12
I0
sg122
I16
sS'Walder Frey'
p155
I4
sg105
I10
sg142
I0
sg96
I18
sg61
I11
sg80
I13
sg123
I0
sg23
I0
sg124
I0
sg52
I8
sg28
I48
sg106
I0
sg69
I15
sg32
I75
sg107
I14
sg34
I2
sg35
I9
sg102
I2
sg40
I9
sg87
I0
sg144
I0
sg125
I0
sg145
I0
sg99
I16
sg4
I18
sg5
I23
sg126
I0
sg108
I0
sg127
I0
sS'Stevron Frey'
p156
I0
sS'Ryger Rivers'
p157
I0
sg128
I0
sg97
I2
sg14
I149
sg16
I3
sg81
I1
sg18
I49
sg50
I0
sg21
I5
sg62
I11
sg82
I1
sg129
I0
sg130
I0
sg131
I0
sg65
I0
sg25
I12
sg146
I0
sg147
I0
sg66
I0
sg47
I7
sg67
I0
sg29
I19
sg98
I0
sg30
I68
sg132
I0
sg133
I0
sg134
I0
sg70
I8
sg135
I0
sg148
I3
sg149
I0
sg150
I2
sg59
I0
sg41
I11
sg75
I15
sg53
I62
sa(dp158
g2
I65
sg3
I18
sg55
I4
sg6
I95
sg7
I15
sg90
I0
sg152
I0
sg56
I13
sS'Jonos Bracken'
p159
I0
sg9
I2
sg19
I59
sg48
I0
sg58
I6
sg137
I0
sg11
I29
sg111
I0
sg91
I8
sg13
I6
sg14
I155
sg15
I5
sg101
I0
sg112
I0
sg84
I7
sg64
I30
sg86
I0
sg26
I0
sg138
I2
sg92
I0
sg33
I39
sg38
I61
sg73
I29
sg39
I0
sg113
I0
sg44
I2
sg114
I0
sS'Rorge'
p160
I0
sg153
I0
sg46
I1
sg93
I3
sg57
I4
sg94
I7
sg10
I108
sg79
I17
sg139
I0
sg115
I0
sg102
I2
sg42
I2
sg129
I0
sg120
I2
sg40
I11
sg17
I64
sg49
I7
sg116
I0
sg60
I8
sg117
I0
sg130
I0
sg63
I10
sg22
I47
sg85
I27
sS'Hot Pie'
p161
I1
sg27
I42
sg68
I8
sg118
I0
sg65
I0
sg140
I0
sg141
I3
sg36
I55
sg72
I1
sS'Rickard Karstark'
p162
I0
sg88
I0
sg74
I12
sg103
I0
sg43
I96
sg23
I0
sg77
I9
sg119
I0
sg8
I0
sg78
I4
sg154
I10
sg104
I2
sS'Drogon'
p163
I0
sg67
I0
sg121
I0
sg20
I18
sg12
I0
sg122
I24
sg155
I4
sg105
I14
sS'Rhaegal'
p164
I0
sg96
I18
sg61
I13
sg142
I0
sg80
I13
sg123
I0
sg143
I9
sg132
I0
sg124
I0
sg52
I8
sg28
I55
sS'Biter'
p165
I0
sg106
I0
sg69
I15
sS'Viserion'
p166
I0
sg32
I86
sg107
I15
sg34
I2
sg35
I11
sg71
I4
sg37
I5
sg87
I0
sg144
I0
sS'Addam Marbrand'
p167
I0
sg125
I0
sg145
I0
sS'Lommy Greenhands'
p168
I1
sg4
I20
sg5
I23
sg126
I0
sg108
I0
sg127
I0
sg156
I0
sg157
I0
sg128
I0
sg97
I2
sg51
I6
sg16
I6
sg81
I1
sg18
I53
sg50
I0
sg21
I5
sg62
I15
sg82
I2
sg83
I2
sg109
I0
sg131
I0
sS"Jaqen H'ghar  "
p169
I0
sg135
I0
sg24
I7
sg25
I13
sg146
I0
sg147
I0
sg66
I0
sg47
I10
sg95
I0
sg29
I21
sg98
I0
sg30
I71
sg31
I14
sg133
I0
sg134
I0
sg70
I12
sg99
I16
sg148
I5
sg149
I0
sg150
I2
sg59
I0
sg41
I11
sg75
I15
sg53
I70
sa(dp170
g2
I77
sg3
I20
sg55
I8
sg6
I99
sg7
I15
sg90
I2
sg152
I0
sg56
I15
sg159
I0
sg9
I2
sS"Night's Watch Officer"
p171
I0
sg19
I70
sg48
I0
sg58
I6
sg137
I0
sg11
I31
sg111
I0
sg91
I8
sg13
I6
sg51
I6
sS'Davos Seaworth'
p172
I5
sg101
I0
sg112
I0
sS'Craster'
p173
I7
sg84
I7
sg64
I30
sg86
I0
sg26
I0
sg138
I2
sg18
I58
sg92
I0
sg33
I40
sS'Melisandre'
p174
I6
sg38
I74
sg73
I34
sg39
I1
sg113
I0
sg44
I2
sg114
I0
sg107
I15
sg160
I0
sg153
I0
sg46
I1
sg93
I3
sg57
I4
sg94
I7
sg10
I114
sg79
I17
sg139
I0
sg115
I0
sg71
I4
sg42
I3
sg83
I6
sg163
I0
sg37
I7
sg17
I68
sg49
I7
sg116
I0
sg60
I8
sg117
I0
sg143
I9
sg109
I0
sg63
I10
sg22
I49
sg85
I27
sg99
I16
sg161
I1
sg27
I42
sg68
I8
sg118
I0
sg24
I7
sg140
I0
sg141
I3
sg36
I62
sg72
I1
sg162
I0
sg88
I0
sg74
I12
sg103
I0
sg43
I102
sS'Eddison Tollett'
p175
I0
sS'Dontos Hollard'
p176
I5
sg77
I9
sg119
I0
sg95
I0
sS'Gilly'
p177
I0
sg8
I0
sg78
I6
sg154
I12
sg104
I2
sg120
I2
sg67
I0
sg31
I16
sg121
I0
sg20
I20
sg12
I0
sg122
I29
sS'Stannis Baratheon'
p178
I8
sg155
I4
sg105
I16
sS'Portan'
p179
I0
sg96
I18
sg15
I5
sg61
I17
sg142
I0
sS'Aggo'
p180
I0
sg80
I13
sg123
I0
sg23
I0
sg132
I0
sg124
I0
sg52
I8
sg28
I59
sg165
I0
sg106
I0
sg69
I15
sg166
I0
sg32
I89
sS'Selyse Baratheon'
p181
I0
sg34
I2
sg35
I11
sg102
I2
sg40
I11
sg87
I0
sg144
I0
sg167
I0
sg125
I0
sg145
I0
sg168
I1
sg4
I22
sg5
I25
sg126
I0
sS'Cressen'
p182
I6
sg108
I0
sg127
I0
sS'Lothor Brune'
p183
I0
sg156
I0
sg157
I0
sg128
I0
sg97
I2
sg14
I155
sg16
I6
sS'Kovarro'
p184
I0
sg81
I1
sS'Eglantine'
p185
I0
sg50
I0
sg21
I5
sg62
I15
sg82
I4
sg129
I0
sg130
I0
sg131
I0
sg169
I0
sg135
I0
sg65
I0
sg25
I13
sg146
I0
sg147
I0
sS'Daisy'
p186
I0
sg66
I0
sg47
I10
sS'Matthos Seaworth'
p187
I0
sg29
I23
sg98
I0
sg30
I73
sg164
I0
sg133
I0
sg134
I0
sg70
I12
sS'Alton Lannister'
p188
I2
sg148
I5
sg149
I0
sg150
I2
sg59
I0
sg41
I11
sg75
I15
sg53
I80
sa(dp189
S'Andy Beckwith'
p190
I0
sg2
I78
sg55
I10
sg3
I20
sg6
I99
sg7
I15
sg90
I4
sg152
I0
sg56
I19
sg159
I0
sg9
I2
sg171
I0
sg19
I72
sg48
I0
sg58
I8
sg137
I0
sg11
I35
sg111
I0
sg91
I8
sg13
I6
sg14
I157
sg172
I8
sg101
I0
sg112
I0
sg173
I13
sg84
I7
sg64
I33
sg86
I0
sg26
I0
sg138
I2
sg185
I0
sg164
I0
sS'Podrick Payne'
p191
I0
sg92
I0
sg33
I42
sg174
I8
sg38
I78
sg73
I34
sg39
I1
sS'Yara Greyjoy'
p192
I2
sg113
I0
sg44
I2
sg114
I0
sg181
I0
sg160
I0
sg153
I0
sg46
I1
sg93
I3
sg57
I4
sg94
I7
sg10
I121
sg79
I19
sg139
I0
sg115
I0
sg102
I2
sS'Balon Greyjoy'
p193
I5
sg129
I0
sg120
I2
sg40
I13
sg17
I68
sg49
I9
sg116
I0
sg60
I8
sg117
I0
sg130
I0
sg63
I10
sg22
I49
sg85
I29
sg161
I1
sg27
I42
sg68
I13
sg118
I0
sg65
I1
sg140
I0
sg141
I3
sg36
I66
sg72
I1
sg162
I0
sg88
I0
sg74
I12
sg103
I0
sg43
I108
sg23
I0
sS'Tom Wlaschiha'
p194
I0
sg176
I5
sg77
I9
sg119
I0
sg177
I2
sg8
I0
sg78
I10
sg154
I14
sg104
I2
sg163
I0
sg188
I4
sg67
I0
sg121
I0
sg20
I20
sg12
I0
sg122
I29
sg178
I12
sg155
I4
sg105
I16
sS'Gerard Jordan'
p195
I0
sg179
I0
sg96
I18
sg15
I5
sg61
I17
sg142
I0
sg180
I0
sg80
I13
sg123
I0
sg143
I9
sg132
I0
sg175
I0
sg124
I0
sg52
I8
sg28
I59
sg165
I0
sg106
I0
sg69
I15
sg166
I0
sg32
I93
sg107
I17
sg34
I2
sg35
I13
sg71
I4
sg37
I7
sg87
I0
sg144
I0
sg167
I0
sg125
I0
sg145
I0
sg187
I2
sg168
I1
sg4
I22
sg5
I25
sg126
I0
sS"Jaqen H'ghar"
p196
I2
sg182
I6
sg108
I0
sg127
I0
sg183
I0
sg156
I0
sg157
I0
sg128
I0
sg97
I2
sg51
I6
sg16
I6
sg184
I0
sg81
I1
sg18
I63
sg50
I0
sg21
I5
sg62
I17
sg82
I4
sg83
I9
sg109
I0
sg131
I0
sg169
I2
sg135
I0
sg24
I7
sg25
I13
sg146
I0
sg147
I0
sg186
I0
sg66
I0
sg47
I10
sg95
I0
sS'Salladhor Saan'
p197
I2
sg29
I25
sg98
I0
sg30
I73
sg31
I18
sg133
I0
sg134
I0
sg70
I12
sg99
I16
sg75
I15
sg148
I5
sg149
I0
sg150
I2
sg59
I0
sS"Captain's daughter"
p198
I0
sg41
I11
sg42
I3
sg53
I88
sa(dp199
g190
I0
sg2
I78
sg55
I12
sg3
I20
sg6
I99
sg7
I15
sg90
I4
sg152
I0
sg56
I23
sg159
I0
sg9
I2
sg171
I0
sg19
I72
sg48
I0
sg58
I8
sg137
I0
sg11
I43
sg111
I0
sg91
I8
sg13
I6
sg51
I6
sg172
I8
sg101
I0
sg112
I0
sg173
I19
sS'Polliver'
p200
I4
sg84
I7
sg64
I35
sg86
I0
sg26
I0
sg138
I2
sg18
I69
sg191
I0
sg92
I0
sg33
I42
sg174
I8
sg38
I81
sg73
I43
sg39
I4
sg192
I4
sg113
I0
sg44
I2
sg114
I0
sg107
I17
sg160
I0
sg153
I0
sg42
I3
sg46
I1
sg93
I3
sg57
I4
sg94
I7
sg10
I127
sg79
I21
sg139
I0
sg115
I0
sg71
I4
sg193
I11
sg83
I15
sg163
I0
sg37
I9
sg17
I70
sg49
I9
sg116
I0
sg60
I8
sg117
I0
sg143
I9
sg109
I0
sg63
I10
sg22
I54
sg85
I31
sg99
I20
sg161
I3
sg27
I42
sg68
I13
sg118
I0
sg24
I7
sg140
I0
sg141
I3
sg36
I71
sg72
I1
sg162
I0
sg88
I0
sg74
I12
sg103
I0
sg43
I117
sS'Brienne of Tarth'
p201
I2
sg194
I0
sg176
I5
sg77
I9
sg119
I0
sg95
I0
sg177
I4
sg8
I0
sg78
I10
sg154
I17
sg104
I2
sg120
I2
sg187
I2
sg31
I18
sg121
I0
sg20
I20
sg12
I0
sg122
I29
sg178
I12
sg155
I4
sg105
I16
sg195
I0
sg179
I0
sg96
I18
sg15
I5
sS'Colen of Greenpools'
p202
I0
sg61
I21
sg142
I0
sg180
I0
sg80
I13
sg123
I0
sg23
I0
sg132
I0
sg175
I0
sg124
I0
sg52
I8
sg28
I64
sg165
I0
sg106
I0
sg69
I15
sg166
I0
sg32
I93
sg181
I0
sg34
I2
sg35
I15
sg102
I2
sg40
I15
sg87
I0
sg144
I0
sg167
I0
sg125
I0
sg145
I0
sg168
I5
sg4
I24
sg5
I25
sg126
I0
sg196
I4
sg182
I6
sg108
I0
sg127
I0
sS'Amory Lorch'
p203
I4
sg183
I0
sg156
I0
sg157
I0
sg128
I0
sg97
I2
sg14
I157
sg16
I6
sg184
I0
sg81
I1
sg185
I0
sS'Margaery Tyrell'
p204
I4
sg50
I0
sg21
I5
sg62
I21
sg82
I4
sg129
I0
sg130
I0
sg131
I0
sg169
I4
sg135
I0
sg65
I2
sg25
I13
sg146
I0
sg147
I0
sg186
I0
sg66
I0
sg47
I10
sg67
I0
sg197
I2
sg29
I27
sg98
I0
sg30
I73
sg164
I0
sg133
I0
sg134
I0
sg70
I12
sg188
I4
sg148
I5
sg149
I0
sg150
I2
sg59
I0
sg198
I0
sg41
I11
sg75
I15
sg53
I95
sa(dp205
g190
I0
sg2
I98
sg55
I15
sg3
I20
sg6
I102
sg7
I15
sg90
I4
sg152
I0
sg56
I23
sg159
I0
sg9
I2
sg171
I0
sg19
I74
sg48
I0
sg58
I10
sg137
I0
sg11
I43
sg111
I0
sg91
I8
sg13
I6
sg14
I159
sg172
I13
sg101
I0
sg112
I0
sg173
I19
sg200
I4
sg84
I7
sg64
I35
sg86
I0
sg26
I0
sg138
I2
sg185
I0
sg164
I0
sg191
I0
sg92
I0
sg33
I45
sg174
I15
sS'Xaro Xhoan Daxos'
p206
I2
sg38
I94
sS'Weasel'
p207
I0
sg73
I63
sg39
I4
sg192
I4
sg113
I0
sg44
I2
sg114
I0
sg181
I0
sg160
I0
sg153
I0
sg46
I1
sg93
I3
sg57
I4
sg94
I7
sg10
I144
sg79
I21
sg139
I0
sg115
I0
sg102
I2
sg42
I3
sg129
I0
sg120
I2
sg40
I15
sg17
I70
sg49
I9
sg116
I0
sg67
I0
sg60
I8
sg117
I0
sg130
I0
sg63
I10
sg22
I63
sg85
I33
sg161
I5
sg27
I42
sg68
I13
sg118
I0
sg65
I2
sS'Silk King'
p208
I0
sg140
I0
sg141
I3
sg36
I83
sg72
I1
sg162
I0
sg88
I0
sg74
I12
sg103
I0
sg43
I117
sg23
I0
sg201
I4
sg194
I0
sg176
I5
sg77
I9
sg119
I0
sg177
I4
sg8
I0
sg78
I10
sg154
I17
sg104
I2
sg163
I0
sg188
I4
sg187
I2
sg121
I0
sg20
I22
sg12
I0
sg122
I38
sg178
I29
sg155
I4
sg105
I16
sg195
I0
sg179
I0
sg96
I18
sg15
I5
sg202
I0
sS'Spice King'
p209
I2
sg61
I21
sg142
I0
sg180
I0
sg80
I16
sg123
I0
sS'Roose Bolton'
p210
I2
sg143
I9
sg132
I0
sg175
I0
sg124
I0
sg52
I8
sg28
I77
sg165
I0
sg106
I0
sg69
I15
sg166
I0
sg32
I99
sg107
I17
sg34
I2
sS'The Tickler'
p211
I20
sg35
I15
sg71
I4
sg37
I9
sg87
I0
sg144
I0
sg167
I0
sg125
I0
sg145
I0
sg168
I5
sg4
I24
sg5
I25
sg126
I0
sg196
I4
sS'Talisa Maegyr'
p212
I2
sg182
I6
sg108
I0
sg127
I0
sg203
I6
sS'Pyat Pree'
p213
I0
sg183
I0
sg156
I0
sg157
I0
sg128
I0
sg97
I2
sg51
I6
sg16
I6
sg184
I2
sg81
I1
sg18
I77
sg204
I8
sg50
I0
sS'Thirteen member'
p214
I5
sS'Copper King'
p215
I0
sg21
I5
sg62
I24
sg82
I4
sg83
I20
sg109
I0
sg131
I0
sg169
I4
sg135
I0
sg24
I7
sg25
I13
sg146
I0
sg147
I0
sg186
I3
sg66
I0
sg47
I10
sg95
I0
sg197
I2
sg29
I29
sg98
I0
sg30
I73
sg31
I22
sg133
I0
sg134
I0
sg70
I27
sg99
I22
sg75
I15
sg148
I8
sg149
I0
sg150
I2
sg59
I0
sg198
I0
sg41
I11
sg193
I11
sg53
I118
sa(dp216
g190
I0
sg2
I101
sg55
I17
sg3
I20
sg6
I102
sg7
I15
sg90
I4
sg152
I0
sg56
I23
sg159
I0
sg9
I2
sg171
I0
sg19
I74
sg48
I0
sg58
I10
sg137
I0
sg11
I46
sg111
I0
sg91
I8
sg13
I6
sg51
I6
sg172
I16
sg101
I0
sS'Malakho'
p217
I0
sg112
I0
sg173
I19
sg200
I4
sg84
I7
sg64
I35
sg119
I0
sg86
I0
sg193
I11
sg26
I0
sS'Lorren'
p218
I0
sg138
I2
sg18
I80
sg191
I0
sS'Drennan'
p219
I0
sg92
I0
sg33
I48
sg174
I19
sg206
I5
sg38
I98
sg207
I0
sg73
I68
sg39
I4
sg192
I4
sg113
I0
sg44
I2
sg114
I0
sg107
I17
sg160
I0
sg153
I0
sg46
I1
sg93
I3
sg57
I4
sg94
I7
sg10
I152
sg79
I21
sg139
I0
sg115
I0
sg71
I4
sg42
I3
sg83
I20
sg163
I1
sg37
I9
sg17
I72
sg49
I9
sg116
I0
sg60
I8
sg117
I0
sg143
I9
sg109
I0
sg63
I10
sg22
I66
sg85
I35
sg99
I22
sS'Emmon Cuy'
p220
I0
sg161
I5
sg27
I42
sS'Qhorin Halfhand'
p221
I4
sg68
I13
sg118
I0
sg24
I7
sg208
I0
sg140
I0
sg141
I3
sg36
I87
sg72
I1
sg162
I0
sg88
I0
sg164
I0
sg103
I0
sg43
I119
sg23
I0
sg201
I8
sg194
I0
sg176
I5
sg77
I9
sS'Robar Royce'
p222
I0
sg95
I0
sg177
I4
sg8
I0
sS'Reginald Lannister'
p223
I0
sg78
I10
sg154
I17
sg104
I2
sg120
I2
sg187
I2
sg31
I22
sg121
I0
sg105
I18
sg20
I22
sg12
I0
sg122
I41
sg178
I34
sg155
I4
sS'Stonesnake'
p224
I0
sg195
I0
sg179
I0
sg96
I18
sg15
I5
sg202
I0
sg209
I2
sg61
I24
sg142
I0
sg180
I0
sg80
I18
sg123
I0
sg210
I2
sS'Borba'
p225
I0
sg132
I0
sg175
I0
sg124
I0
sg52
I8
sg28
I77
sg165
I0
sg106
I0
sg69
I15
sg166
I0
sg32
I103
sg181
I0
sg34
I2
sg211
I23
sg35
I15
sg102
I2
sg40
I15
sg87
I0
sg144
I0
sg167
I0
sg125
I0
sg145
I0
sg168
I5
sg4
I24
sg5
I25
sg126
I0
sg196
I8
sg212
I2
sg182
I6
sg108
I0
sg127
I0
sg203
I6
sg213
I2
sg183
I0
sg156
I0
sg157
I0
sg128
I0
sS'Quaithe'
p226
I2
sg97
I2
sg14
I159
sg16
I6
sg184
I2
sg81
I1
sg185
I0
sg204
I8
sg50
I0
sg214
I5
sg215
I0
sg21
I5
sg62
I24
sg82
I4
sg129
I0
sg130
I0
sg131
I0
sg169
I8
sg135
I0
sg65
I2
sg25
I16
sg146
I0
sg147
I0
sg186
I3
sg66
I0
sg47
I10
sg67
I0
sg197
I2
sg29
I29
sg98
I0
sg30
I73
sg74
I12
sg133
I0
sg134
I0
sg70
I29
sS'Hallyne'
p227
I3
sg188
I4
sS'Dagmer'
p228
I2
sg148
I8
sg149
I0
sg150
I2
sg59
I0
sg198
I0
sS'Harker'
p229
I0
sg41
I11
sg75
I15
sg53
I127
sa(dp230
g190
I0
sg2
I111
sg55
I19
sg3
I20
sg6
I102
sS'Farlen'
p231
I0
sg7
I15
sg90
I4
sg152
I0
sg56
I23
sg159
I0
sg9
I2
sg171
I0
sg19
I76
sg48
I0
sg58
I10
sg137
I0
sg11
I59
sg111
I0
sg91
I8
sg13
I6
sg14
I159
sg172
I16
sg101
I0
sg217
I0
sg112
I0
sg173
I19
sg200
I4
sg84
I7
sg64
I35
sg222
I0
sg86
I0
sg26
I0
sg218
I0
sg138
I2
sg185
I0
sg177
I4
sg191
I0
sg219
I0
sg92
I0
sg33
I48
sg174
I19
sg206
I6
sg38
I106
sg207
I0
sg73
I70
sg39
I7
sg192
I4
sg113
I0
sg44
I2
sg114
I0
sg181
I0
sg160
I0
sg153
I0
sg46
I1
sg93
I3
sg57
I4
sg94
I7
sg10
I162
sg79
I21
sg139
I0
sg115
I0
sg102
I2
sg42
I5
sg129
I0
sg120
I2
sg40
I15
sg17
I77
sg49
I10
sg116
I0
sg67
I0
sg60
I8
sg117
I0
sg130
I0
sg63
I10
sg144
I0
sg22
I68
sg85
I35
sg131
I0
sg220
I0
sg161
I5
sg27
I42
sg221
I9
sg68
I13
sg118
I0
sg65
I2
sg208
I0
sg140
I0
sg141
I3
sg36
I92
sg72
I1
sg162
I0
sg74
I12
sg88
I0
sg224
I0
sg164
I0
sg103
I0
sg43
I125
sg201
I10
sg194
I0
sg176
I5
sg77
I9
sg119
I0
sS'Quent'
p232
I0
sg8
I0
sg223
I0
sg78
I11
sg154
I17
sg104
I2
sg163
I1
sg188
I4
sg95
I0
sg168
I5
sg121
I0
sg20
I25
sg12
I0
sg122
I48
sg178
I37
sg155
I4
sg105
I21
sg195
I0
sg179
I0
sg96
I18
sg15
I5
sg202
I0
sS'High Septon'
p233
I3
sg209
I3
sg61
I24
sg142
I0
sg180
I0
sg80
I18
sg123
I0
sg210
I6
sg143
I9
sg132
I0
sg175
I0
sg124
I0
sg52
I8
sg28
I84
sg165
I0
sg106
I0
sg69
I15
sg166
I0
sg32
I105
sg107
I17
sg34
I2
sg211
I31
sg35
I15
sg71
I4
sg37
I11
sg87
I0
sS'Palla'
p234
I0
sg167
I0
sg125
I0
sg145
I0
sg187
I2
sS'Ygritte'
p235
I6
sg4
I27
sg5
I25
sg126
I0
sg196
I11
sg212
I5
sg182
I6
sg108
I0
sg127
I0
sg203
I12
sg213
I2
sg225
I0
sg156
I0
sg157
I0
sg128
I0
sg226
I2
sg97
I2
sg51
I6
sg16
I8
sg184
I2
sg81
I1
sg18
I87
sg204
I8
sg50
I0
sg214
I5
sg215
I0
sg21
I5
sg62
I24
sg82
I4
sg83
I20
sg109
I0
sg183
I0
sg169
I11
sg135
I0
sg24
I7
sg25
I19
sg146
I0
sg147
I0
sg186
I3
sg66
I0
sg47
I10
sg23
I0
sg197
I2
sg29
I31
sg98
I0
sg30
I73
sg31
I22
sg133
I0
sg134
I0
sg70
I29
sg227
I3
sg99
I22
sg75
I15
sg228
I4
sg148
I8
sg149
I0
sg150
I2
sg59
I0
sg198
I0
sg229
I0
sg41
I11
sg193
I11
sg53
I133
sa(dp236
g190
I0
sg2
I120
sg55
I19
sg3
I20
sg6
I104
sg231
I0
sg7
I15
sg90
I4
sg152
I0
sg56
I23
sg159
I0
sg9
I2
sg171
I0
sg19
I90
sg48
I0
sg58
I10
sg137
I0
sg11
I68
sg111
I0
sg91
I8
sg13
I6
sg51
I6
sg172
I16
sg101
I0
sg217
I0
sg112
I0
sg16
I11
sg173
I19
sg200
I4
sg84
I7
sg64
I35
sg119
I0
sS'Billy'
p237
I0
sg193
I11
sg26
I0
sg218
I3
sg138
I2
sg18
I91
sg232
I0
sg191
I0
sg219
I0
sg92
I0
sg33
I54
sg174
I19
sg206
I11
sg38
I112
sg207
I0
sg73
I70
sg39
I9
sg192
I4
sg113
I0
sg44
I2
sg114
I0
sg107
I17
sg160
I0
sg153
I0
sg46
I1
sg93
I3
sg57
I4
sg94
I7
sg10
I164
sg79
I21
sg139
I0
sg115
I0
sg71
I4
sg42
I7
sg83
I20
sg163
I1
sg37
I13
sg17
I80
sg49
I10
sg116
I0
sg60
I8
sg117
I0
sg109
I0
sg63
I10
sg234
I0
sg22
I73
sg85
I35
sg99
I22
sg220
I0
sg161
I5
sg27
I42
sg221
I11
sg68
I13
sg118
I0
sg24
I7
sg208
I0
sg140
I0
sg141
I3
sg36
I101
sg72
I1
sg162
I3
sg88
I0
sg74
I12
sg103
I0
sg43
I130
sg23
I0
sg201
I11
sg194
I0
sg176
I5
sg77
I9
sg222
I0
sg177
I4
sg8
I0
sg223
I0
sg78
I11
sg154
I20
sg104
I2
sg120
I2
sg95
I0
sg31
I22
sg121
I0
sg105
I24
sg20
I30
sg12
I0
sg122
I53
sg178
I37
sg155
I4
sg224
I0
sg195
I0
sg179
I0
sg96
I18
sg15
I5
sg202
I0
sg233
I3
sg209
I3
sg61
I24
sg142
I0
sg180
I0
sg80
I22
sg123
I0
sg210
I6
sg143
I9
sg132
I0
sg175
I0
sg124
I0
sg52
I8
sg28
I97
sg165
I0
sg106
I0
sg183
I0
sg69
I15
sg166
I0
sg32
I111
sg181
I0
sg34
I2
sg211
I38
sg35
I15
sg102
I2
sg40
I15
sg87
I0
sg144
I0
sg167
I0
sg125
I0
sg145
I0
sg187
I2
sg168
I5
sg4
I29
sg5
I25
sg126
I0
sS'Torrhen Karstark'
p238
I6
sg196
I13
sg212
I7
sg182
I6
sg108
I0
sg127
I0
sg203
I14
sg213
I7
sg225
I0
sg156
I0
sg157
I0
sg128
I0
sg226
I6
sg97
I2
sg14
I161
sS'Jack'
p239
I0
sg184
I4
sg81
I1
sg185
I0
sg204
I8
sg50
I0
sg214
I8
sg215
I0
sg21
I5
sg62
I24
sg82
I4
sg129
I0
sg130
I0
sg235
I9
sg131
I0
sg169
I13
sg135
I0
sg65
I2
sg25
I19
sg146
I0
sg147
I0
sg186
I3
sg66
I0
sg47
I10
sg67
I0
sg197
I2
sg29
I33
sg98
I0
sg30
I73
sg164
I0
sg133
I0
sg134
I0
sg86
I0
sg70
I29
sg227
I3
sg188
I10
sg228
I5
sg148
I8
sg149
I0
sg150
I2
sg59
I0
sg198
I0
sg229
I0
sg41
I11
sg75
I15
sg53
I145
sa(dp240
g190
I0
sg2
I122
sg55
I19
sg3
I20
sg6
I104
sg231
I0
sg7
I15
sg90
I4
sg152
I0
sg56
I23
sg159
I0
sg9
I2
sg171
I0
sg19
I93
sg48
I0
sg58
I10
sg137
I0
sg11
I75
sg225
I0
sg111
I0
sg91
I8
sg13
I6
sg14
I161
sg172
I17
sg101
I0
sg217
I0
sg112
I0
sg239
I0
sg173
I19
sg200
I4
sg84
I7
sg64
I37
sg222
I0
sg237
I0
sg26
I0
sg218
I3
sg138
I2
sg185
I0
sg177
I4
sg191
I0
sg219
I0
sg92
I0
sg33
I57
sg174
I19
sg206
I11
sg38
I117
sg207
I0
sg73
I70
sg39
I9
sg192
I6
sg113
I0
sg44
I2
sg114
I0
sg181
I0
sg160
I0
sg153
I0
sg46
I1
sg93
I3
sg57
I4
sg94
I7
sg10
I168
sg79
I23
sg139
I0
sg115
I0
sg102
I2
sg42
I7
sg129
I0
sg120
I2
sg40
I15
sg17
I83
sg49
I10
sg116
I0
sg67
I0
sg60
I8
sg117
I0
sg143
I9
sg130
I0
sg63
I10
sg144
I0
sg22
I76
sg85
I37
sg220
I0
sg161
I6
sg27
I42
sg221
I14
sg68
I13
sg118
I0
sg65
I2
sg208
I0
sg140
I0
sg141
I3
sg36
I101
sg72
I1
sg162
I3
sg88
I0
sg224
I0
sg74
I12
sg103
I0
sg43
I135
sg201
I14
sg194
I0
sg176
I5
sg77
I9
sg119
I0
sg232
I0
sg8
I0
sg223
I0
sg78
I11
sg154
I22
sg104
I2
sg163
I1
sg188
I10
sg187
I2
sg121
I0
sg20
I30
sg12
I0
sg122
I56
sg178
I40
sg155
I4
sg105
I27
sg195
I0
sg179
I0
sg96
I18
sS'Lord of Bones'
p241
I3
sg15
I5
sg202
I0
sg233
I3
sg209
I3
sg61
I24
sg142
I0
sg180
I0
sg80
I24
sg123
I0
sg210
I8
sg23
I0
sg132
I0
sg175
I0
sg124
I0
sg52
I8
sg28
I97
sg165
I0
sg106
I0
sg69
I15
sg166
I0
sg134
I0
sg32
I113
sg107
I17
sg34
I2
sg211
I38
sg35
I15
sg71
I6
sg37
I13
sg87
I0
sg234
I0
sg167
I0
sg125
I0
sg145
I0
sg168
I5
sg4
I33
sg5
I25
sg126
I0
sg238
I6
sg196
I17
sg212
I9
sg182
I6
sg108
I0
sg127
I0
sg203
I14
sg213
I7
sg183
I0
sg156
I0
sg157
I0
sg128
I0
sg226
I6
sg97
I2
sg51
I6
sg16
I12
sg184
I4
sg81
I1
sg18
I96
sg204
I8
sg50
I0
sg214
I8
sg215
I0
sg21
I5
sg62
I24
sg82
I4
sg83
I21
sg109
I0
sg235
I11
sg131
I0
sg169
I17
sg135
I0
sg24
I7
sg25
I19
sg146
I0
sg147
I0
sg186
I3
sg66
I0
sg47
I10
sg95
I0
sg197
I2
sg29
I33
sg98
I0
sg30
I73
sg31
I24
sg133
I0
sg164
I0
sg86
I0
sg70
I29
sg227
I3
sg99
I22
sg75
I15
sg228
I8
sg148
I8
sg149
I0
sg150
I2
sg59
I0
sg198
I0
sg229
I0
sg41
I11
sg193
I11
sg53
I151
sa(dp242
g190
I0
sg3
I20
sg55
I19
sg6
I104
sg231
I0
sg7
I15
sg90
I4
sg152
I0
sg56
I23
sg159
I0
sg9
I2
sg171
I0
sg19
I93
sg48
I0
sg58
I11
sg137
I0
sg11
I75
sg111
I0
sg91
I8
sg13
I6
sg51
I6
sg172
I20
sg101
I0
sg217
I0
sg112
I0
sg16
I12
sg173
I19
sg200
I4
sg84
I7
sg64
I40
sg119
I0
sg237
I0
sg193
I11
sg26
I0
sg218
I3
sg138
I2
sg18
I96
sg232
I0
sg191
I3
sg219
I0
sg92
I0
sg33
I57
sg174
I19
sg206
I11
sg38
I118
sg207
I0
sg73
I72
sg39
I9
sg192
I6
sg113
I0
sg44
I2
sg114
I0
sg107
I17
sg160
I0
sg2
I127
sg153
I0
sg46
I1
sg93
I3
sg57
I4
sg94
I7
sg10
I184
sg79
I23
sg139
I0
sg115
I0
sg71
I6
sg42
I11
sg83
I21
sg163
I1
sg37
I13
sg17
I83
sg49
I10
sg116
I0
sg60
I8
sg117
I0
sg109
I0
sg63
I10
sg234
I0
sg22
I76
sg85
I43
sg131
I0
sg220
I0
sg161
I6
sg27
I42
sg221
I14
sg68
I13
sg118
I0
sg24
I7
sg208
I0
sg140
I0
sS'Boros Blount'
p243
I2
sg141
I3
sg36
I112
sg72
I1
sg162
I3
sg99
I25
sg88
I0
sg74
I12
sg103
I0
sg43
I135
sg23
I0
sg201
I14
sg194
I0
sg176
I5
sg77
I9
sg222
I0
sg95
I0
sg177
I4
sg8
I0
sg223
I0
sg78
I11
sg154
I26
sg104
I2
sg120
I2
sg187
I4
sg31
I24
sg121
I0
sg105
I27
sg20
I34
sg12
I0
sg122
I60
sg178
I54
sg155
I4
sg224
I0
sg195
I0
sg179
I0
sg96
I18
sg241
I3
sg15
I5
sg202
I0
sg233
I4
sg209
I3
sg61
I24
sg142
I0
sg180
I0
sg80
I24
sg123
I0
sg210
I8
sg143
I9
sS'Imry Florent'
p244
I0
sg175
I0
sg124
I0
sg52
I8
sg28
I104
sg165
I0
sg106
I0
sg69
I15
sg166
I0
sg32
I113
sg181
I0
sg34
I2
sg211
I44
sg35
I15
sg102
I2
sg40
I15
sg87
I0
sg144
I0
sg167
I0
sg125
I0
sg145
I0
sg164
I0
sg168
I5
sg4
I33
sg5
I25
sg126
I0
sg238
I6
sg196
I17
sg212
I9
sg182
I6
sg108
I0
sg127
I0
sg203
I14
sg213
I7
sg225
I0
sg156
I0
sg157
I0
sg128
I0
sg226
I6
sg97
I2
sg14
I161
sg239
I0
sg184
I4
sg81
I1
sg185
I0
sg204
I8
sg50
I0
sg214
I8
sg215
I0
sg21
I5
sg62
I26
sg82
I4
sg129
I0
sg130
I0
sg235
I11
sg183
I0
sg169
I17
sg135
I0
sg65
I2
sg25
I19
sg146
I0
sg147
I0
sg186
I3
sg66
I0
sg47
I13
sg67
I0
sg197
I2
sg29
I34
sg98
I0
sg30
I73
sg132
I0
sg133
I0
sg134
I0
sg86
I0
sg70
I36
sg227
I3
sg188
I10
sg228
I8
sg148
I8
sg149
I0
sg150
I2
sg59
I0
sg198
I0
sg229
I0
sg41
I11
sg75
I15
sg53
I161
sa(dp245
g190
I0
sg3
I20
sg55
I19
sg6
I104
sg231
I0
sg7
I15
sg90
I4
sg152
I0
sg56
I23
sg159
I0
sg9
I2
sg171
I0
sg19
I98
sg48
I0
sg58
I13
sg137
I0
sg11
I82
sg111
I0
sg91
I8
sg13
I6
sg14
I161
sg172
I20
sg101
I0
sS'Rhaego'
p246
I3
sg217
I0
sg112
I0
sg239
I0
sg173
I19
sg200
I4
sg84
I7
sg64
I43
sg222
I0
sg237
I0
sg26
I0
sg218
I3
sg138
I2
sg185
I0
sg177
I4
sg191
I3
sg219
I0
sg92
I0
sg33
I60
sg174
I25
sg206
I16
sg38
I125
sg207
I0
sg73
I72
sg39
I9
sg192
I6
sg113
I0
sg44
I2
sg114
I0
sg181
I0
sg160
I0
sg2
I133
sg153
I0
sg46
I1
sg93
I3
sg57
I4
sg94
I7
sg10
I189
sg35
I20
sg79
I23
sg139
I0
sg115
I0
sg102
I2
sg42
I11
sg129
I0
sg120
I2
sg40
I20
sg17
I85
sg49
I10
sg116
I0
sg67
I0
sg60
I8
sg117
I0
sg143
I9
sg130
I0
sg63
I10
sg144
I0
sg22
I79
sg85
I45
sg220
I0
sg161
I8
sg27
I42
sg221
I21
sg68
I13
sg118
I0
sg65
I2
sg208
I0
sg140
I0
sg243
I2
sg141
I3
sg36
I114
sg72
I1
sg162
I3
sg88
I0
sg224
I0
sg74
I12
sg103
I0
sg43
I149
sg201
I18
sg194
I0
sg176
I5
sg77
I9
sg119
I0
sg232
I0
sg8
I0
sg223
I0
sg78
I11
sS'Tom'
p247
I0
sg104
I2
sg163
I1
sg188
I10
sg187
I4
sg121
I0
sg20
I34
sg12
I0
sg122
I63
sg178
I63
sg155
I4
sg105
I30
sg195
I0
sg179
I0
sg96
I18
sg241
I10
sg15
I5
sg202
I0
sg233
I4
sg209
I3
sg61
I24
sg142
I0
sg86
I0
sg180
I0
sg80
I24
sg123
I0
sg210
I10
sg23
I0
sS'Gelmarr'
p248
I0
sg132
I0
sg175
I0
sS'Stygg'
p249
I0
sg124
I0
sg52
I11
sg28
I107
sg165
I0
sg106
I0
sg183
I0
sg69
I15
sg166
I0
sg134
I0
sg32
I121
sg107
I18
sg34
I2
sg211
I49
sg154
I28
sg71
I8
sg37
I15
sg87
I0
sg234
I0
sg167
I0
sg125
I0
sg145
I0
sg168
I5
sg4
I39
sg5
I25
sg126
I0
sg238
I6
sg196
I21
sg212
I13
sg182
I6
sg108
I0
sg127
I0
sg203
I14
sg213
I11
sg225
I0
sg156
I0
sg157
I0
sg128
I0
sg226
I6
sg97
I2
sg51
I6
sg16
I14
sg184
I6
sg81
I1
sg18
I100
sg204
I11
sg50
I0
sg214
I8
sg215
I0
sg21
I5
sg62
I29
sg82
I4
sg83
I23
sg109
I0
sg235
I14
sg131
I0
sg169
I21
sg135
I0
sg24
I7
sg25
I19
sg146
I0
sg147
I0
sg186
I3
sg66
I0
sg47
I13
sg95
I0
sg197
I2
sg29
I37
sg98
I0
sg30
I76
sg31
I24
sg133
I0
sg164
I0
sg244
I0
sg70
I36
sg227
I3
sg99
I27
sg75
I15
sg228
I11
sg148
I8
sg149
I0
sg150
I2
sg59
I0
sg198
I0
sg229
I0
sg41
I11
sg193
I11
sg53
I172
sa(dp250
g190
I0
sg2
I140
sg55
I21
sg3
I20
sg6
I109
sg231
I0
sg7
I15
sg90
I4
sg152
I0
sg56
I23
sg159
I0
sg9
I2
sg171
I0
sg19
I100
sg48
I0
sg58
I13
sg137
I0
sg11
I82
sg225
I0
sg111
I0
sg91
I8
sg13
I6
sg51
I6
sg172
I29
sg101
I0
sg246
I3
sg217
I0
sg112
I0
sg16
I14
sg173
I24
sg200
I4
sg84
I7
sg64
I43
sg119
I0
sg237
I0
sg193
I11
sg26
I0
sg218
I3
sg138
I2
sg18
I100
sg232
I0
sg191
I3
sg219
I0
sg92
I0
sg33
I66
sg174
I31
sg206
I16
sg38
I134
sg207
I0
sg73
I72
sg39
I9
sg192
I6
sg113
I0
sg44
I2
sg114
I0
sg107
I19
sg160
I0
sS'Kraznys mo Nakloz'
p251
I5
sg153
I0
sS"Margaery's handmaiden"
p252
I0
sg46
I1
sg93
I3
sg57
I4
sg94
I7
sg10
I202
sg79
I25
sg139
I0
sg115
I0
sg71
I8
sg42
I11
sg154
I35
sg163
I2
sg37
I15
sg17
I85
sg49
I10
sg116
I0
sg60
I8
sg117
I0
sg109
I0
sg63
I10
sg234
I0
sg22
I79
sg85
I49
sg131
I0
sg220
I0
sg161
I8
sg27
I42
sg221
I26
sg68
I13
sg118
I0
sg24
I7
sg208
I0
sg25
I19
sg140
I0
sg243
I2
sg141
I3
sg36
I119
sg72
I1
sg162
I3
sg99
I29
sS'Unsullied'
p253
I8
sS'Qyburn'
p254
I2
sg103
I0
sg43
I160
sg83
I23
sS'Mance Rayder'
p255
I10
sS'Giant'
p256
I1
sg201
I18
sg194
I0
sg176
I5
sg77
I9
sg222
I0
sg95
I0
sg15
I5
sg177
I4
sg66
I0
sg8
I0
sg223
I0
sg78
I11
sg247
I0
sg104
I2
sg120
I2
sg187
I6
sg31
I26
sg121
I0
sg105
I30
sg20
I34
sg12
I0
sg122
I75
sg178
I73
sg155
I4
sg224
I0
sg195
I0
sg179
I0
sg96
I18
sg241
I16
sS'Jaremy Mallister'
p257
I0
sg202
I0
sg233
I4
sg209
I3
sS'Orphan kid'
p258
I0
sg61
I26
sg142
I0
sg244
I0
sg180
I0
sg80
I24
sg123
I0
sg210
I10
sg143
I9
sg248
I0
sg132
I0
sg175
I0
sg249
I0
sg124
I0
sg52
I11
sg28
I114
sg165
I0
sg106
I0
sg69
I20
sg166
I0
sg32
I135
sg197
I6
sg181
I0
sg34
I2
sg211
I53
sg35
I23
sg102
I2
sg40
I23
sg87
I0
sS'Boat commander'
p259
I0
sg144
I0
sg167
I0
sg125
I0
sg145
I0
sg164
I0
sg168
I5
sg4
I39
sg5
I25
sg126
I0
sg238
I6
sg196
I21
sg212
I13
sg182
I6
sg108
I0
sg127
I0
sg203
I14
sg213
I13
sg183
I0
sS'Mirelle'
p260
I0
sg156
I0
sg157
I0
sg128
I0
sg226
I6
sg97
I2
sg14
I161
sg239
I0
sg184
I6
sg81
I1
sg185
I0
sg204
I18
sg50
I0
sg214
I8
sg215
I0
sg21
I5
sg62
I29
sg82
I4
sg129
I0
sg130
I0
sg235
I15
sS'Tormund Giantsbane'
p261
I2
sg169
I21
sg135
I0
sg65
I2
sg88
I0
sg146
I0
sg147
I0
sg186
I3
sg23
I0
sg47
I13
sg67
I0
sS'Missandei'
p262
I2
sS'Unidentified Warlock'
p263
I0
sg29
I37
sg98
I0
sg30
I76
sg74
I12
sg133
I0
sg134
I0
sg86
I0
sg70
I36
sg227
I3
sg188
I10
sg228
I11
sg148
I8
sg149
I0
sg150
I2
sg59
I0
sg198
I0
sg229
I0
sg41
I11
sg75
I15
sg53
I178
sa(dp264
g190
I0
sg2
I159
sg55
I22
sg3
I20
sg6
I113
sg231
I0
sg7
I15
sg90
I4
sg152
I0
sg56
I23
sg159
I0
sg9
I2
sg171
I0
sS'Jojen Reed'
p265
I11
sg19
I117
sg48
I0
sg58
I13
sg137
I0
sg11
I88
sg23
I0
sg111
I0
sS'Master Torturer'
p266
I0
sg91
I8
sg13
I6
sg14
I168
sg172
I29
sg101
I0
sg246
I3
sg217
I0
sg112
I0
sg239
I0
sg247
I0
sg173
I24
sg200
I4
sg84
I7
sg64
I43
sg222
I0
sg237
I0
sg26
I0
sg218
I3
sg138
I2
sg185
I0
sg177
I4
sg191
I3
sg219
I0
sg92
I0
sg33
I66
sg174
I31
sg206
I16
sg38
I147
sg207
I0
sg73
I86
sg39
I9
sg192
I8
sg113
I0
sg44
I2
sg114
I0
sg181
I0
sg160
I0
sg251
I5
sS'Meera Reed'
p267
I2
sg153
I0
sg252
I0
sg46
I5
sg93
I3
sg57
I4
sg94
I7
sg10
I208
sg79
I27
sg139
I0
sg115
I0
sg102
I2
sg42
I11
sg129
I0
sg120
I2
sS'Thoros of Myr'
p268
I6
sg40
I23
sg17
I102
sg49
I10
sg116
I0
sg67
I0
sg60
I8
sg117
I0
sg143
I9
sg130
I0
sg63
I10
sg243
I2
sg22
I91
sg88
I0
sg85
I49
sg261
I2
sg220
I0
sg161
I10
sg27
I42
sg221
I26
sg68
I13
sg118
I0
sg65
I2
sS"King's Landing tailor"
p269
I0
sg208
I0
sg140
I0
sS'Ramsay Snow'
p270
I2
sg141
I3
sg36
I123
sg72
I1
sg162
I5
sg74
I12
sg253
I8
sg224
I0
sg254
I2
sg103
I0
sg43
I174
sg255
I17
sg256
I1
sg201
I31
sg194
I0
sg176
I5
sg77
I9
sg119
I0
sg232
I0
sg8
I0
sg223
I0
sg78
I11
sg154
I40
sg104
I2
sg163
I2
sS'Olenna Tyrell'
p271
I9
sg188
I10
sg187
I6
sg121
I0
sg20
I37
sg12
I0
sg122
I76
sg178
I74
sg155
I4
sg105
I35
sg195
I0
sg179
I0
sg96
I18
sg241
I21
sg15
I5
sg202
I0
sg233
I4
sS'Riverrun traveller'
p272
I5
sg258
I0
sg144
I0
sg61
I28
sg142
I0
sg86
I0
sg180
I0
sg80
I24
sg123
I0
sg210
I14
sg225
I0
sg244
I0
sg132
I0
sg175
I0
sg249
I0
sg124
I0
sg257
I0
sg52
I11
sg28
I130
sg165
I0
sg106
I0
sg69
I20
sg166
I0
sg134
I0
sS'Locke'
p273
I2
sg32
I135
sg107
I19
sg34
I2
sg211
I61
sg209
I3
sg35
I23
sg71
I10
sg37
I18
sg87
I0
sg259
I0
sg234
I0
sg167
I0
sg263
I0
sg125
I0
sg145
I0
sg168
I5
sg4
I40
sg5
I25
sg126
I0
sg238
I6
sS'Tyrell server'
p274
I7
sg196
I23
sg212
I18
sS'Anguy'
p275
I0
sg182
I6
sg108
I0
sg127
I0
sg203
I14
sg213
I13
sg183
I0
sS'Orell'
p276
I4
sg156
I0
sg157
I0
sg128
I0
sg226
I6
sg97
I2
sg51
I6
sg16
I19
sg184
I6
sg81
I1
sg18
I107
sg204
I32
sg50
I0
sg214
I8
sg215
I0
sg21
I5
sg62
I29
sg82
I6
sg83
I28
sg109
I0
sg235
I17
sg131
I0
sg169
I23
sg135
I0
sg24
I7
sg25
I19
sg146
I0
sg147
I0
sg186
I3
sg66
I0
sg47
I13
sg95
I0
sg262
I2
sg197
I6
sg260
I0
sg29
I38
sg98
I0
sg30
I76
sg31
I28
sg133
I0
sg164
I0
sg248
I0
sg70
I36
sg227
I3
sg99
I34
sg75
I15
sg228
I11
sg148
I8
sg149
I0
sg150
I2
sg59
I0
sg198
I0
sg229
I0
sg41
I11
sg193
I11
sg53
I185
sa(dp277
g190
I0
sg2
I159
sg55
I24
sg3
I20
sS"Gilly's baby"
p278
I0
sg6
I116
sg231
I0
sS'Willem Lannister'
p279
I3
sg90
I4
sg152
I0
sg226
I6
sg56
I23
sg159
I0
sg9
I2
sg171
I0
sg265
I11
sg19
I135
sg48
I0
sg58
I15
sg137
I0
sg268
I9
sg11
I97
sg176
I5
sg111
I0
sg266
I2
sg91
I8
sg13
I6
sg51
I6
sg172
I29
sg101
I0
sg246
I3
sg217
I0
sg112
I0
sg16
I21
sg173
I33
sg200
I4
sg84
I7
sg64
I46
sg119
I0
sg237
I0
sg193
I11
sg26
I0
sg218
I3
sg131
I0
sg138
I2
sg18
I115
sg7
I15
sg191
I7
sg219
I0
sg92
I0
sg33
I74
sg174
I31
sg206
I16
sg38
I161
sg207
I0
sg73
I87
sg39
I9
sg192
I8
sg113
I0
sg44
I2
sg114
I0
sg107
I19
sg160
I0
sg251
I11
sg34
I2
sg267
I2
sg153
I0
sg252
I0
sg46
I5
sg93
I3
sg57
I4
sS'Genna'
p280
I2
sS'Tortured slave'
p281
I0
sg94
I7
sg10
I228
sg35
I31
sg79
I29
sg139
I0
sg115
I0
sg71
I10
sg42
I11
sg83
I32
sg163
I2
sS'Kayla'
p282
I2
sg37
I18
sg17
I104
sg49
I10
sg116
I0
sg60
I8
sg117
I0
sg143
I9
sg109
I0
sg63
I10
sg144
I0
sg22
I95
sg85
I56
sS'Martyn Lannister'
p283
I3
sg220
I0
sg161
I15
sg27
I44
sg221
I26
sg68
I13
sg118
I0
sg24
I7
sg269
I0
sg208
I0
sg248
I0
sg25
I19
sg140
I0
sg243
I2
sg141
I3
sg36
I127
sg72
I1
sg162
I5
sg99
I34
sg88
I0
sg74
I12
sg103
I0
sg43
I180
sg255
I29
sg256
I1
sg201
I40
sg194
I0
sS"Craster's wife"
p284
I0
sg77
I9
sg222
I0
sg95
I0
sg177
I8
sg8
I0
sg223
I0
sg78
I11
sg247
I0
sg104
I2
sg120
I2
sg271
I9
sg67
I0
sg31
I31
sg121
I0
sg105
I35
sg20
I39
sg12
I0
sg122
I96
sS'Karl Tanner'
p285
I0
sg178
I76
sg155
I4
sg224
I0
sg195
I0
sg179
I0
sg96
I21
sg241
I31
sg15
I5
sg202
I0
sg233
I4
sg209
I3
sg258
I0
sg61
I30
sg142
I0
sg180
I0
sg80
I27
sg123
I0
sg210
I18
sg23
I0
sg244
I0
sg132
I0
sg175
I0
sg249
I0
sg124
I0
sg257
I0
sg52
I11
sg28
I130
sg165
I0
sg106
I0
sg183
I0
sg69
I27
sg166
I0
sg273
I13
sg32
I153
sg197
I6
sg181
I0
sS'Edmure Tully'
p286
I10
sg211
I74
sg154
I42
sg102
I2
sg40
I31
sg87
I0
sg259
I0
sg270
I2
sg167
I0
sg125
I0
sg145
I0
sg187
I6
sg164
I0
sS'Hoster Tully'
p287
I5
sg234
I0
sg168
I5
sg4
I40
sg5
I25
sg126
I0
sg238
I6
sg272
I10
sg196
I23
sg274
I11
sg212
I22
sg275
I0
sg182
I6
sg108
I0
sg127
I0
sg203
I14
sg213
I13
sg225
I0
sg276
I6
sg156
I0
sg157
I0
sg128
I0
sg232
I0
sg97
I2
sg14
I168
sg239
I0
sg184
I6
sg81
I1
sg185
I0
sg204
I32
sg50
I0
sg214
I8
sg215
I0
sg21
I5
sg62
I32
sg82
I6
sg129
I0
sg130
I0
sg235
I17
sg261
I8
sg169
I23
sg135
I0
sg65
I2
sg253
I16
sg146
I0
sg147
I0
sg186
I3
sg66
I0
sg47
I13
sS'Brynden "The Blackfish" Tully'
p288
I11
sg262
I9
sg263
I0
sg260
I0
sg29
I40
sg98
I0
sg30
I76
sg254
I2
sg133
I0
sg134
I0
sg86
I0
sS'Greizhen mo Ullhor'
p289
I0
sg70
I36
sg227
I3
sg188
I10
sg228
I11
sg148
I8
sg149
I0
sg150
I2
sg59
I0
sg198
I0
sg229
I0
sg41
I11
sg75
I15
sg53
I197
sa(dp290
g190
I0
sg2
I166
sg55
I24
sg3
I20
sg278
I0
sg6
I121
sg231
I0
sg279
I3
sg90
I4
sg152
I0
sg56
I23
sg254
I2
sg159
I0
sg9
I2
sg171
I0
sg265
I16
sg19
I162
sg48
I0
sg58
I15
sg137
I0
sg282
I2
sg11
I114
sg284
I0
sg225
I0
sg111
I0
sg266
I2
sg91
I8
sg13
I6
sg14
I171
sg172
I29
sg101
I0
sg246
I3
sg217
I0
sg112
I0
sg239
I0
sg173
I54
sg200
I4
sg84
I7
sg64
I69
sg222
I0
sg237
I0
sg26
I0
sg218
I3
sg138
I2
sg185
I0
sg7
I15
sg191
I9
sg219
I0
sg92
I0
sg33
I76
sg174
I33
sg253
I24
sg206
I16
sg38
I164
sg207
I0
sg73
I87
sg39
I9
sg192
I11
sg113
I0
sg44
I2
sg114
I0
sg181
I0
sg160
I0
sg288
I11
sg251
I19
sg286
I10
sg267
I2
sg153
I0
sg252
I0
sg46
I20
sg93
I3
sg57
I4
sg280
I2
sg281
I0
sg94
I7
sg10
I237
sg79
I31
sg139
I0
sg115
I0
sg102
I3
sg42
I11
sg154
I42
sg120
I2
sg268
I13
sg40
I34
sg17
I112
sg49
I10
sS'Sorcerer'
p291
I0
sg116
I0
sg60
I11
sg117
I0
sg130
I0
sg260
I0
sg63
I10
sg234
I0
sg22
I97
sg85
I56
sg283
I3
sg220
I0
sg161
I15
sg27
I44
sg232
I0
sg221
I26
sg68
I13
sg118
I0
sg65
I2
sg269
I0
sg208
I0
sg140
I0
sg243
I2
sg141
I3
sg36
I138
sg72
I1
sg162
I5
sg88
I0
sg224
I0
sg74
I12
sg103
I0
sg43
I180
sg255
I29
sg256
I1
sg201
I48
sg194
I0
sg176
I5
sg77
I9
sg119
I0
sg177
I13
sg66
I0
sg8
I0
sg223
I0
sg78
I11
sg247
I0
sg104
I2
sg163
I6
sg271
I12
sg188
I10
sg67
I0
sg211
I92
sg121
I0
sg129
I0
sg20
I47
sg12
I0
sg122
I105
sg285
I2
sg178
I78
sg155
I4
sg105
I35
sg195
I0
sg179
I0
sg96
I21
sg241
I36
sg15
I5
sg202
I0
sg233
I4
sg209
I3
sg258
I0
sg61
I32
sg142
I0
sg86
I0
sg180
I0
sg80
I31
sg123
I0
sg210
I18
sg143
I9
sg248
I0
sg132
I0
sg175
I0
sg249
I0
sg124
I0
sg257
I0
sg52
I11
sg28
I142
sg165
I0
sg106
I0
sg69
I29
sS'Bolton soldier'
p292
I0
sg166
I0
sg134
I0
sg273
I28
sg32
I164
sg107
I21
sg34
I2
sS'Tyrell lady'
p293
I6
sg35
I34
sg71
I14
sg37
I18
sg87
I0
sg259
I0
sg144
I0
sg167
I0
sg263
I0
sg125
I0
sg145
I0
sg187
I6
sg287
I5
sg168
I5
sg4
I40
sg5
I25
sg126
I0
sg238
I6
sg272
I10
sg196
I23
sg274
I17
sg212
I22
sg275
I0
sg182
I6
sg108
I0
sg127
I0
sg203
I14
sg213
I13
sg183
I0
sg270
I2
sg156
I0
sg157
I0
sg128
I0
sg169
I23
sg226
I6
sg97
I2
sg51
I10
sg16
I24
sg184
I6
sg81
I1
sg18
I118
sg204
I41
sg50
I0
sg214
I8
sg215
I0
sg21
I5
sg62
I32
sg82
I6
sg83
I33
sg109
I0
sg235
I17
sg131
I0
sg261
I8
sg135
I0
sg24
I7
sg25
I19
sg146
I0
sg147
I0
sg186
I3
sg23
I0
sg47
I13
sg95
I0
sg262
I13
sg197
I6
sg276
I6
sg29
I40
sg98
I0
sg30
I76
sg31
I35
sg133
I0
sg164
I0
sg244
I0
sg289
I0
sg70
I36
sg227
I3
sg99
I36
sg75
I15
sg228
I11
sg148
I8
sg149
I0
sg150
I2
sg59
I0
sg198
I0
sg229
I0
sg41
I11
sg193
I13
sg53
I205
sa(dp294
g190
I0
sg2
I169
sg55
I27
sg3
I20
sg278
I0
sg6
I134
sg231
I0
sg279
I7
sg90
I4
sg152
I0
sg56
I25
sg159
I0
sg9
I2
sg171
I0
sg265
I16
sg19
I178
sg48
I0
sg95
I0
sg58
I16
sg137
I0
sg268
I27
sg11
I116
sg176
I5
sg23
I0
sg111
I0
sg266
I2
sg91
I8
sg13
I6
sg51
I10
sg172
I36
sg101
I0
sg246
I3
sg217
I0
sg112
I0
sg16
I24
sg247
I0
sg173
I54
sg200
I4
sg84
I7
sg64
I74
sg119
I0
sg237
I0
sg193
I13
sg26
I0
sg218
I3
sg131
I0
sg138
I2
sg18
I134
sg7
I15
sg191
I9
sg219
I0
sg92
I0
sg33
I94
sg174
I34
sg206
I16
sg38
I208
sg207
I0
sg73
I90
sg39
I9
sg192
I11
sg113
I0
sg44
I2
sg114
I0
sS'Shireen Baratheon'
p295
I7
sg160
I0
sg251
I19
sg34
I2
sg267
I2
sS'Grey Worm'
p296
I5
sg252
I0
sg293
I16
sg46
I20
sg93
I3
sg57
I4
sg280
I2
sg281
I0
sg94
I7
sg10
I248
sg79
I31
sg139
I0
sg115
I0
sg71
I14
sg42
I11
sg83
I42
sg163
I6
sg282
I2
sg37
I18
sg17
I112
sg271
I17
sg49
I10
sg291
I0
sg116
I0
sg60
I13
sg117
I0
sg143
I9
sg109
I0
sg63
I10
sg144
I0
sg22
I102
sg85
I56
sg283
I7
sg220
I0
sg161
I15
sg27
I44
sg221
I26
sg68
I13
sg118
I0
sg24
I7
sg269
I0
sg208
I0
sg25
I19
sg140
I0
sg243
I2
sg141
I3
sg36
I149
sg72
I1
sg162
I16
sg99
I41
sg253
I32
sg254
I3
sg103
I2
sg43
I189
sg255
I30
sg256
I1
sg201
I55
sg194
I0
sg284
I0
sg77
I9
sg222
I0
sS'Karstark lookout'
p297
I20
sg232
I0
sg8
I0
sg223
I0
sg78
I11
sg154
I42
sg104
I2
sg120
I2
sS'Edric Baratheon'
p298
I0
sg67
I0
sg31
I35
sg121
I0
sg105
I35
sg20
I61
sg12
I0
sg122
I124
sg285
I2
sg178
I83
sg155
I6
sg224
I0
sg195
I0
sg179
I0
sg96
I21
sg241
I54
sg15
I5
sg202
I0
sg233
I4
sg209
I3
sg177
I13
sg258
I0
sg153
I0
sg61
I32
sg142
I0
sS'Tommard Baratheon'
p299
I0
sg244
I0
sg180
I0
sg80
I31
sg123
I0
sg210
I19
sS'Olyvar'
p300
I2
sg248
I0
sg132
I0
sg175
I0
sg249
I0
sg124
I0
sg257
I0
sg52
I11
sg28
I149
sg165
I0
sg106
I0
sg69
I44
sg292
I1
sg166
I0
sg273
I30
sg32
I178
sg197
I6
sg181
I1
sg286
I13
sg211
I99
sg261
I10
sg229
I0
sg35
I34
sg102
I29
sg40
I34
sg87
I0
sg259
I0
sg234
I0
sg167
I0
sg125
I0
sg145
I0
sg187
I6
sg164
I0
sg287
I5
sg168
I5
sg4
I40
sg5
I25
sg126
I0
sg238
I6
sg272
I18
sg196
I23
sg274
I27
sg212
I30
sg275
I1
sg182
I6
sg108
I0
sg127
I0
sg203
I14
sg213
I13
sg225
I0
sg260
I0
sg156
I0
sg157
I0
sg128
I0
sg226
I6
sS'Petyr Baratheon'
p301
I3
sg97
I2
sg14
I173
sg239
I0
sg184
I6
sg81
I3
sg185
I0
sg204
I42
sg50
I0
sg214
I8
sg215
I0
sg21
I5
sg62
I33
sg82
I8
sg129
I0
sg130
I0
sg235
I22
sg183
I0
sg169
I23
sg135
I0
sg65
I2
sg88
I0
sg146
I0
sg147
I0
sg186
I3
sg66
I0
sg47
I13
sg288
I13
sg262
I16
sg263
I0
sg276
I7
sg29
I42
sg98
I0
sg30
I76
sg74
I12
sg133
I0
sg134
I0
sg86
I0
sg289
I0
sg70
I36
sg227
I3
sg188
I10
sg270
I2
sg228
I11
sg148
I8
sg149
I0
sg150
I2
sg59
I0
sg198
I0
sg107
I21
sg41
I11
sg75
I15
sg53
I230
sa(dp302
g190
I0
sg2
I175
sg55
I29
sg3
I20
sg278
I0
sg6
I135
sg231
I0
sg279
I7
sg90
I4
sg152
I0
sg56
I25
sg159
I0
sg9
I2
sg171
I0
sg265
I19
sg19
I187
sg48
I0
sg58
I16
sg137
I0
sg282
I2
sg11
I118
sg284
I0
sg111
I0
sg266
I2
sg91
I8
sg13
I6
sg14
I173
sg172
I36
sg101
I0
sg246
I3
sg217
I0
sg112
I0
sg239
I0
sg173
I56
sg200
I4
sg84
I7
sg64
I81
sg222
I0
sg237
I0
sg26
I0
sg218
I3
sg138
I2
sg185
I0
sg7
I15
sg191
I9
sg219
I0
sg92
I0
sg295
I7
sg174
I35
sg300
I2
sg206
I16
sg38
I211
sg207
I0
sg73
I90
sg39
I9
sg192
I11
sg113
I0
sg44
I2
sg114
I0
sS'Lothar Frey'
p303
I2
sg160
I0
sg288
I13
sg251
I19
sg286
I17
sg267
I5
sg296
I5
sg252
I0
sg46
I20
sg93
I3
sg57
I4
sg280
I2
sg281
I0
sg94
I7
sg10
I257
sg35
I34
sg79
I33
sg139
I0
sg115
I0
sg102
I30
sg42
I11
sg129
I0
sg120
I2
sg268
I28
sg40
I34
sg17
I115
sg298
I0
sg49
I10
sg291
I0
sg116
I0
sg60
I13
sg117
I0
sg143
I9
sg130
I0
sg63
I10
sg166
I0
sg22
I102
sg88
I0
sg85
I56
sg283
I7
sg220
I0
sg107
I21
sg161
I15
sg27
I44
sS'Black Walder Rivers'
p304
I4
sg68
I13
sg118
I0
sg65
I2
sg269
I0
sg208
I0
sg140
I0
sg243
I2
sg141
I3
sg36
I162
sg72
I1
sg162
I17
sg74
I12
sg253
I32
sg224
I0
sg254
I3
sg103
I2
sg43
I198
sg255
I30
sg256
I1
sg201
I58
sg194
I0
sg176
I5
sg77
I9
sg119
I0
sg297
I22
sg232
I0
sg221
I26
sg8
I0
sg223
I0
sg78
I11
sg247
I0
sg104
I2
sg163
I6
sg271
I22
sg188
I10
sg67
I0
sg211
I102
sg121
I0
sg20
I61
sg12
I0
sg122
I130
sg285
I2
sg178
I84
sg155
I10
sg105
I37
sg195
I0
sg179
I0
sg96
I21
sg241
I59
sg15
I5
sg202
I0
sg233
I4
sg209
I3
sg177
I16
sg258
I0
sg153
I0
sg61
I32
sg142
I0
sg299
I0
sg180
I0
sg80
I31
sg123
I0
sg210
I21
sg23
I0
sg244
I0
sg132
I0
sg175
I0
sg249
I0
sg124
I0
sg257
I0
sg52
I11
sg28
I159
sg165
I0
sg106
I0
sg183
I0
sg69
I44
sg292
I7
sg33
I94
sg134
I0
sg273
I30
sg32
I178
sg181
I1
sg34
I2
sg293
I18
sg154
I45
sg71
I14
sg37
I18
sg87
I0
sg259
I0
sg144
I0
sg167
I0
sg263
I0
sg125
I0
sg86
I0
sg145
I0
sg187
I6
sg287
I5
sg234
I0
sg168
I5
sg4
I40
sg5
I25
sg126
I0
sg238
I7
sg272
I20
sg196
I23
sg274
I29
sg212
I30
sg275
I3
sg182
I6
sg108
I0
sg127
I0
sg203
I14
sg213
I13
sg225
I0
sg260
I0
sg156
I0
sg157
I0
sg128
I0
sg169
I23
sg226
I6
sg301
I5
sg97
I2
sg51
I10
sg16
I24
sg184
I6
sg81
I3
sg18
I136
sg204
I42
sg50
I0
sg214
I8
sg215
I0
sg21
I5
sg62
I33
sg82
I8
sg83
I43
sg109
I0
sg235
I29
sg131
I0
sg261
I13
sg135
I0
sg24
I7
sg25
I19
sg146
I0
sg147
I0
sg186
I3
sg66
I0
sg47
I13
sg95
I0
sg262
I16
sg197
I6
sg276
I8
sg29
I42
sg98
I0
sg30
I76
sg31
I39
sg133
I0
sg164
I0
sg248
I0
sg289
I0
sg70
I36
sg227
I3
sg99
I53
sg75
I15
sg270
I2
sg228
I11
sg148
I8
sg149
I0
sg150
I2
sg59
I0
sg198
I0
sg229
I0
sg41
I11
sg193
I13
sg53
I234
sa(dp305
g190
I0
sg2
I190
sg55
I29
sg3
I20
sg278
I0
sg6
I137
sg231
I0
sg279
I7
sg90
I4
sg152
I0
sg56
I25
sg159
I0
sg9
I2
sg171
I0
sg265
I21
sg19
I214
sg48
I0
sg95
I0
sg58
I18
sg137
I0
sg268
I28
sg11
I129
sg176
I5
sg225
I0
sg111
I0
sg266
I2
sg91
I8
sg13
I6
sg51
I10
sg172
I36
sg101
I0
sg246
I3
sg217
I0
sg181
I1
sg112
I0
sg16
I24
sg173
I56
sS'Myranda'
p306
I0
sg200
I4
sg84
I7
sS'Balon Swann'
p307
I0
sg119
I0
sg237
I0
sg193
I13
sg26
I0
sg218
I3
sg138
I2
sg18
I138
sg7
I15
sg191
I9
sg219
I0
sg92
I0
sg295
I7
sg174
I39
sg206
I16
sg38
I218
sg207
I0
sg73
I90
sg39
I9
sg192
I11
sg113
I0
sg44
I2
sg114
I0
sg303
I2
sg160
I0
sg251
I19
sg34
I2
sg267
I7
sg296
I7
sg252
I0
sg293
I20
sg46
I20
sg93
I3
sg57
I4
sg280
I2
sg281
I0
sg94
I7
sg10
I265
sg79
I33
sg139
I0
sg115
I0
sg71
I14
sg42
I11
sg154
I48
sg163
I8
sg282
I2
sg37
I18
sg17
I117
sg271
I22
sg49
I10
sS'Razdal mo Eraz'
p308
I9
sg291
I0
sg116
I0
sg60
I13
sg117
I0
sg143
I9
sg109
I0
sg63
I10
sg234
I0
sg22
I105
sg85
I59
sg283
I7
sg220
I0
sg161
I15
sg27
I44
sg304
I6
sg68
I13
sg118
I0
sg65
I2
sg269
I0
sg208
I0
sg248
I0
sg25
I19
sg140
I0
sg243
I2
sg141
I3
sg36
I162
sg72
I1
sg162
I17
sg99
I53
sS'Violet'
p309
I0
sg88
I0
sg74
I12
sg103
I2
sg43
I207
sg83
I48
sg255
I32
sg256
I1
sg201
I70
sg194
I0
sg284
I0
sg77
I9
sg222
I0
sg297
I22
sg232
I0
sg221
I26
sg8
I0
sg223
I0
sg78
I11
sg247
I0
sg104
I2
sg120
I2
sg298
I0
sg67
I0
sg31
I39
sg121
I0
sg105
I40
sg20
I63
sg12
I0
sg122
I147
sg285
I2
sg178
I85
sg155
I12
sg224
I0
sg195
I0
sg179
I0
sg96
I21
sg241
I67
sg15
I5
sg202
I0
sg233
I4
sg209
I3
sg177
I16
sg258
I0
sg153
I0
sg61
I32
sg142
I0
sg299
I0
sg180
I0
sg80
I31
sg123
I0
sg210
I23
sg300
I2
sg244
I0
sg132
I0
sg175
I0
sg249
I0
sg124
I0
sg257
I0
sg52
I11
sg28
I164
sg165
I0
sg106
I0
sg33
I97
sg69
I46
sg292
I14
sg166
I0
sg147
I0
sg273
I39
sg32
I192
sg197
I6
sg107
I21
sg286
I20
sg211
I114
sg261
I15
sg35
I34
sg102
I30
sg40
I34
sg87
I0
sg259
I0
sg144
I0
sg167
I0
sg125
I0
sg145
I0
sg187
I6
sg164
I0
sg287
I5
sg168
I5
sg4
I40
sg5
I25
sg126
I0
sg238
I7
sg272
I20
sg196
I23
sg274
I31
sg212
I31
sg275
I3
sg182
I6
sg108
I0
sg127
I0
sg203
I14
sg213
I13
sg183
I0
sg260
I0
sg156
I0
sg157
I0
sg128
I0
sg24
I7
sg226
I6
sg301
I5
sg97
I2
sg14
I173
sg239
I0
sg184
I6
sg81
I3
sg185
I0
sg204
I44
sg50
I0
sg214
I8
sg215
I0
sg21
I5
sg62
I33
sg82
I8
sg129
I0
sg130
I0
sg235
I35
sg131
I0
sg169
I23
sg135
I0
sS'Steelshanks'
p310
I5
sg253
I35
sg146
I0
sg64
I81
sg186
I3
sg23
I0
sg47
I13
sg288
I13
sg262
I18
sg263
I0
sg276
I12
sg29
I47
sg98
I0
sg30
I76
sg254
I12
sg133
I0
sg134
I0
sg86
I0
sg289
I0
sg70
I36
sg227
I3
sg188
I10
sg66
I0
sg270
I2
sg228
I11
sg148
I8
sg149
I0
sg150
I2
sg59
I0
sg198
I0
sg229
I0
sg41
I11
sg75
I15
sg53
I238
sa(dp311
g190
I0
sg2
I203
sg55
I29
sg3
I20
sg278
I0
sg6
I137
sg231
I0
sg279
I7
sg90
I4
sg152
I0
sg56
I25
sg254
I12
sg159
I0
sg9
I2
sg171
I0
sg265
I21
sg19
I214
sg48
I0
sg58
I18
sg137
I0
sg282
I2
sg11
I129
sg284
I0
sg111
I0
sg266
I2
sg91
I8
sg13
I6
sg14
I173
sg172
I47
sg106
I0
sg101
I0
sg246
I3
sg217
I0
sg112
I0
sg239
I0
sg247
I0
sg173
I56
sg306
I0
sg200
I4
sg84
I7
sg307
I2
sg222
I0
sg237
I0
sg26
I0
sg218
I3
sg131
I0
sg138
I2
sg185
I0
sg7
I15
sg191
I9
sg219
I0
sg92
I0
sg295
I7
sg174
I48
sg253
I39
sg300
I2
sg206
I16
sg38
I220
sg207
I0
sg73
I92
sg39
I9
sg192
I11
sg113
I0
sg44
I2
sg114
I0
sg303
I2
sg160
I0
sg288
I13
sg251
I19
sg286
I20
sg267
I7
sg296
I7
sg252
I0
sg46
I20
sg93
I3
sg57
I4
sg280
I2
sg281
I0
sg94
I7
sg10
I284
sg79
I34
sg139
I0
sg115
I0
sg102
I30
sg42
I11
sg129
I0
sg120
I2
sg268
I28
sg40
I37
sg17
I117
sg298
I0
sg49
I10
sg308
I9
sg291
I0
sg116
I0
sg60
I13
sg117
I0
sg143
I9
sg130
I0
sg64
I81
sg63
I10
sg234
I0
sg22
I105
sS'Prendahl na Ghezn'
p312
I6
sg283
I7
sg220
I0
sg161
I15
sg85
I59
sg304
I7
sg144
I0
sg68
I13
sg118
I0
sg24
I7
sg269
I0
sg208
I0
sg140
I0
sg243
I2
sg141
I3
sg36
I167
sg72
I1
sg162
I17
sg309
I0
sg88
I0
sg224
I0
sg74
I12
sg103
I2
sg43
I207
sg27
I44
sg255
I32
sg256
I1
sg201
I70
sg194
I0
sg176
I5
sg77
I9
sg119
I0
sg297
I22
sg232
I0
sg221
I26
sg8
I0
sg223
I0
sg78
I11
sg154
I49
sg104
I2
sg163
I8
sg271
I22
sg188
I10
sg67
I0
sg211
I125
sg121
I0
sg20
I67
sg12
I0
sg122
I152
sg285
I2
sg178
I96
sg155
I12
sg105
I40
sg195
I0
sg179
I0
sg96
I21
sg241
I69
sg15
I5
sg202
I0
sg233
I6
sg209
I3
sg177
I23
sg258
I0
sg153
I0
sg61
I32
sg142
I0
sg299
I0
sg180
I0
sg80
I31
sg123
I0
sg210
I23
sg225
I0
sg248
I0
sg132
I0
sg175
I0
sg249
I0
sg124
I0
sg257
I0
sg52
I11
sg28
I178
sg165
I0
sS'Daario Naharis'
p313
I8
sg69
I51
sg292
I14
sg33
I99
sg134
I0
sg273
I39
sg32
I204
sg181
I1
sg34
I2
sg293
I25
sg229
I0
sg35
I37
sg71
I14
sg37
I18
sg87
I0
sg259
I0
sS'Mero'
p314
I9
sg167
I0
sg182
I6
sg125
I0
sg86
I0
sg145
I0
sg187
I6
sg287
I5
sg168
I5
sg4
I40
sg5
I25
sg126
I0
sg238
I7
sg272
I20
sg196
I23
sg274
I36
sg263
I0
sg212
I31
sg275
I3
sg166
I0
sg108
I0
sg127
I0
sg203
I14
sg213
I13
sg183
I0
sg260
I0
sg156
I0
sg157
I0
sg128
I0
sg226
I6
sg301
I5
sg97
I2
sg51
I10
sg16
I24
sg184
I6
sg81
I3
sg18
I145
sg204
I48
sg50
I0
sg214
I8
sg215
I0
sg21
I5
sg62
I33
sg82
I8
sg83
I55
sg109
I0
sg235
I35
sg261
I15
sg169
I23
sg135
I0
sg65
I2
sg25
I19
sg146
I0
sg310
I5
sg147
I0
sg186
I3
sg23
I0
sg47
I13
sg95
I0
sg262
I25
sg197
I6
sg276
I12
sg29
I47
sg98
I0
sg30
I76
sg31
I39
sg133
I0
sg164
I0
sg244
I0
sg289
I0
sg70
I36
sg227
I3
sg99
I53
sg66
I0
sg75
I15
sg270
I2
sg228
I11
sg148
I8
sg149
I0
sg150
I2
sg59
I0
sg198
I0
sg107
I24
sg41
I11
sg193
I15
sg53
I243
sa(dp315
g190
I0
sg2
I203
sg55
I29
sg184
I6
sg3
I20
sg278
I0
sg6
I137
sg231
I0
sg279
I7
sg90
I4
sg152
I0
sg56
I25
sg159
I0
sg9
I2
sg171
I0
sg265
I25
sg19
I214
sg48
I0
sg95
I0
sg83
I55
sg58
I18
sg137
I0
sg193
I15
sg268
I28
sg11
I129
sg176
I5
sg111
I0
sg266
I2
sg91
I8
sg13
I6
sg51
I10
sg172
I47
sg313
I17
sg101
I0
sg246
I3
sg217
I0
sg112
I0
sg16
I28
sg173
I56
sg306
I0
sg200
I4
sg84
I7
sg307
I2
sg119
I0
sg314
I9
sS'Hog farmer'
p316
I0
sg27
I44
sg26
I0
sS'Marianne Frey'
p317
I0
sg218
I3
sg138
I2
sg18
I149
sg7
I15
sg191
I9
sg219
I0
sg92
I0
sg295
I7
sg174
I48
sg206
I16
sg38
I229
sg207
I0
sg73
I92
sg39
I9
sS'Janeya Frey'
p318
I0
sg192
I11
sg113
I0
sg44
I2
sg114
I0
sg303
I5
sg160
I0
sg251
I19
sg34
I2
sg267
I9
sg296
I14
sg252
I0
sg293
I25
sg46
I20
sg93
I3
sg223
I0
sg57
I4
sg280
I2
sg281
I0
sg94
I7
sg10
I284
sg35
I39
sg79
I36
sg139
I0
sg115
I0
sg71
I14
sg42
I11
sg129
I0
sg163
I8
sg282
I2
sg37
I21
sg17
I127
sg271
I22
sg49
I10
sg308
I9
sg291
I0
sg116
I0
sg60
I13
sg117
I0
sg143
I9
sg109
I0
sg63
I10
sg144
I0
sg22
I111
sg312
I6
sg283
I7
sg220
I0
sg107
I24
sg161
I15
sg85
I59
sg304
I11
sg68
I13
sg118
I0
sg65
I2
sg269
I0
sg208
I0
sg25
I19
sg140
I0
sg243
I2
sg62
I33
sg141
I3
sg36
I167
sg72
I1
sg162
I17
sg99
I53
sg309
I0
sg253
I39
sg254
I12
sg103
I2
sg43
I223
sS'Walda Frey'
p319
I0
sg255
I32
sg256
I1
sg201
I70
sg194
I0
sg284
I0
sS'Neyela Frey'
p320
I0
sg81
I3
sg77
I9
sg222
I0
sg297
I22
sg232
I0
sg221
I26
sg8
I0
sS'Waldra Frey'
p321
I0
sg78
I11
sg247
I0
sg104
I2
sg120
I2
sg298
I0
sg67
I0
sg31
I39
sg121
I0
sg105
I45
sg20
I69
sg12
I0
sg122
I152
sg285
I2
sg178
I96
sg155
I19
sg224
I0
sg195
I0
sg179
I0
sg96
I21
sg241
I73
sg15
I5
sS'Roslin Frey'
p322
I1
sg202
I0
sg233
I6
sg209
I3
sg177
I27
sg258
I0
sg153
I2
sg61
I32
sg142
I0
sg299
I0
sg244
I0
sg180
I0
sg80
I31
sg123
I0
sS'Freya Frey'
p323
I0
sg210
I26
sg300
I2
sg248
I0
sg132
I0
sg175
I0
sg249
I0
sg124
I0
sg257
I0
sg52
I11
sg28
I178
sg165
I0
sg106
I0
sg183
I0
sg69
I54
sg292
I16
sg33
I106
sg275
I3
sg147
I0
sg273
I39
sg32
I209
sg197
I6
sg181
I1
sg286
I22
sg211
I128
sg154
I49
sg102
I30
sg40
I39
sg87
I0
sg259
I0
sg234
I0
sg167
I0
sg125
I0
sg86
I0
sg145
I0
sg187
I6
sg164
I0
sg287
I5
sg168
I5
sg4
I40
sg5
I25
sS'Shirei Frey'
p324
I0
sg126
I0
sg238
I7
sg272
I20
sg196
I23
sg274
I36
sg212
I34
sS'Drummer'
p325
I0
sg182
I6
sg108
I0
sg127
I0
sS'Serra Frey'
p326
I0
sS'Merry Frey'
p327
I0
sg213
I13
sg225
I0
sg203
I14
sg260
I0
sg156
I0
sg157
I0
sg128
I0
sg169
I23
sg226
I6
sg301
I5
sS'Wendel Manderly'
p328
I0
sg97
I2
sg14
I173
sg239
I0
sS'Sarra Frey'
p329
I0
sg166
I0
sg185
I0
sg204
I48
sg50
I0
sg214
I8
sS'Frey guard'
p330
I11
sg21
I5
sg215
I0
sg82
I8
sS'Derwa Frey'
p331
I0
sg130
I0
sg235
I40
sg131
I0
sg261
I20
sg135
I0
sg24
I7
sg88
I0
sg146
I0
sg310
I5
sg64
I81
sg186
I3
sg23
I0
sg47
I13
sg288
I14
sg262
I25
sg263
I0
sg276
I19
sg29
I47
sg98
I0
sg30
I76
sg74
I12
sg133
I0
sg134
I0
sg237
I0
sg289
I0
sg70
I36
sg227
I3
sg188
I10
sS'Old man'
p332
I0
sg66
I0
sg270
I2
sg228
I11
sg148
I8
sg149
I0
sg150
I2
sg59
I0
sg198
I0
sg229
I0
sg41
I11
sg75
I15
sg53
I245
sa(dp333
g190
I0
sg2
I215
sg55
I29
sg3
I20
sg278
I0
sg6
I139
sg231
I0
sg279
I7
sg90
I4
sg152
I0
sg56
I25
sg159
I0
sg9
I2
sg171
I0
sg265
I27
sg19
I218
sg48
I0
sg70
I36
sg58
I19
sg137
I0
sg282
I2
sg11
I141
sg284
I0
sg225
I0
sg111
I0
sg266
I2
sg91
I8
sg13
I6
sg14
I173
sg172
I55
sg106
I0
sg101
I0
sS"Night's Watchman"
p334
I0
sg246
I3
sg217
I0
sg181
I1
sg112
I0
sg239
I0
sg173
I58
sg306
I0
sg200
I4
sg84
I7
sg307
I6
sg222
I0
sg85
I59
sg316
I0
sg26
I0
sg166
I0
sg317
I0
sg218
I3
sg138
I2
sg18
I158
sg23
I0
sg7
I15
sg191
I11
sg219
I0
sg92
I0
sg295
I9
sg174
I52
sg300
I2
sg206
I16
sg38
I238
sg207
I0
sg73
I92
sg74
I12
sg39
I9
sg318
I0
sg192
I15
sg113
I0
sg44
I2
sg114
I0
sg303
I5
sg160
I0
sg321
I0
sg251
I19
sg286
I22
sg267
I12
sg296
I17
sg252
I0
sg46
I20
sg93
I3
sg215
I0
sg57
I6
sg280
I2
sg331
I0
sg281
I0
sg94
I7
sg10
I307
sg79
I38
sg139
I0
sg115
I0
sg102
I30
sg193
I19
sg129
I0
sg288
I16
sg120
I2
sg268
I28
sg47
I13
sg40
I43
sg17
I136
sg298
I0
sg49
I10
sg308
I9
sg291
I0
sg116
I0
sg135
I0
sg60
I13
sg117
I0
sg130
I0
sg64
I86
sg63
I10
sg144
I0
sg22
I111
sg88
I0
sg312
I6
sg283
I7
sg220
I0
sg161
I15
sg27
I44
sg304
I16
sg68
I13
sg118
I0
sS'Fruit vendor'
p335
I0
sg24
I7
sg269
I0
sg185
I0
sg208
I0
sg154
I54
sg140
I0
sg243
I2
sg141
I3
sg36
I170
sg72
I2
sg162
I17
sg309
I0
sg253
I41
sg224
I0
sg254
I14
sg103
I3
sg43
I229
sg319
I0
sg255
I32
sg256
I1
sg201
I72
sg194
I0
sg176
I5
sg82
I8
sg320
I0
sg77
I9
sg119
I0
sg297
I22
sg232
I0
sg221
I26
sg8
I0
sg223
I0
sS'Desmond Crakehall'
p336
I0
sg78
I11
sg247
I0
sg104
I2
sg325
I0
sg163
I8
sg271
I22
sg188
I10
sg67
I0
sg211
I136
sg121
I0
sg20
I74
sg12
I0
sg122
I166
sg285
I2
sg178
I103
sg155
I26
sg105
I45
sg195
I0
sg179
I0
sg96
I21
sg241
I77
sg15
I5
sg322
I1
sg202
I0
sg233
I6
sg209
I3
sg177
I32
sg258
I0
sg29
I49
sg153
I2
sg61
I34
sg142
I0
sg299
I0
sg180
I0
sg80
I31
sg123
I0
sg323
I0
sg210
I34
sg143
I9
sg244
I0
sg132
I0
sg175
I0
sg249
I0
sg124
I0
sg257
I0
sg52
I11
sg28
I192
sg165
I0
sg313
I17
sg69
I54
sg292
I31
sg33
I106
sg134
I0
sg273
I39
sg32
I219
sg197
I6
sg107
I24
sg34
I2
sg293
I25
sg261
I20
sg35
I43
sg71
I14
sg37
I25
sg87
I0
sg259
I0
sg314
I9
sg167
I0
sg263
I0
sg125
I0
sg86
I0
sg145
I0
sg187
I6
sg287
I5
sg234
I0
sg168
I5
sg4
I40
sg5
I25
sg324
I0
sg126
I0
sg238
I7
sg272
I23
sg196
I25
sg274
I36
sg212
I34
sg275
I3
sg182
I6
sg108
I0
sg127
I0
sg326
I0
sg327
I0
sg213
I13
sg183
I0
sg203
I14
sg260
I0
sg156
I0
sg157
I0
sg128
I0
sg226
I6
sg301
I5
sg328
I0
sg97
I2
sg51
I10
sg16
I28
sg184
I6
sg81
I4
sS'Eldrick Sarsfield'
p337
I0
sg204
I48
sg50
I0
sg214
I8
sg330
I27
sg21
I5
sg62
I36
sg329
I0
sg83
I58
sg237
I0
sg109
I0
sS'Frey soldier #2'
p338
I16
sg131
I0
sg169
I25
sS'Frey soldier #1'
p339
I16
sg65
I2
sg25
I19
sg146
I0
sg310
I5
sg147
I0
sg186
I3
sS"Yunkai'i slave #4"
p340
I0
sS"Yunkai'i slave #5"
p341
I0
sg95
I0
sg262
I28
sS"Yunkai'i slave #1"
p342
I0
sS"Yunkai'i slave #2"
p343
I0
sS"Yunkai'i slave #3"
p344
I0
sg235
I44
sg98
I0
sg30
I76
sg31
I39
sg133
I0
sg164
I0
sg248
I0
sg289
I0
sg276
I19
sg227
I3
sg99
I53
sg332
I0
sg66
I0
sg75
I19
sg270
I12
sg228
I11
sg148
I8
sg149
I0
sg150
I2
sg59
I0
sg198
I0
sg229
I0
sg41
I11
sg42
I11
sg53
I254
sa(dp345
g190
I0
sg2
I223
sg55
I31
sg3
I20
sg278
I0
sg6
I141
sg231
I0
sg279
I7
sg90
I4
sg152
I0
sg226
I6
sg56
I25
sg159
I0
sg9
I2
sg171
I0
sg265
I27
sg19
I241
sg48
I0
sg95
I0
sg83
I58
sg58
I19
sg137
I0
sg268
I28
sg11
I141
sg176
I7
sg111
I0
sg266
I2
sg91
I8
sg13
I6
sg51
I10
sg172
I55
sg313
I21
sg101
I0
sg334
I0
sg246
I3
sg217
I0
sg112
I0
sg16
I28
sg247
I0
sS'Endrew Tarth'
p346
I0
sg173
I58
sg306
I0
sg200
I16
sg84
I7
sg307
I6
sg119
I0
sg316
I0
sg26
I0
sg317
I0
sg218
I3
sg131
I0
sg138
I2
sg185
I0
sg7
I15
sg191
I14
sg219
I0
sg92
I0
sg295
I9
sg174
I52
sg300
I5
sg206
I16
sg38
I241
sg207
I0
sg73
I94
sg39
I9
sg318
I0
sg192
I15
sg113
I0
sg44
I2
sg114
I0
sg303
I5
sg160
I0
sg251
I19
sg34
I2
sg267
I12
sg296
I19
sg42
I11
sg252
I0
sg293
I27
sg46
I20
sg93
I3
sg223
I0
sg57
I6
sg280
I2
sg235
I47
sg281
I0
sg41
I11
sg94
I7
sg10
I317
sg35
I43
sg79
I40
sg139
I0
sg115
I0
sg71
I14
sg193
I19
sg129
I0
sg163
I13
sg282
I2
sg37
I25
sg17
I136
sg271
I25
sg49
I10
sg69
I57
sg308
I9
sg248
I0
sg291
I0
sg116
I0
sg67
I0
sg60
I13
sg117
I2
sg143
I9
sg109
I0
sg63
I12
sg314
I9
sg22
I114
sg85
I63
sg283
I7
sg220
I0
sg107
I24
sg161
I15
sg312
I6
sg304
I20
sg68
I13
sg118
I0
sg335
I0
sg65
I2
sg269
I0
sg208
I0
sg329
I0
sg25
I19
sg140
I0
sg243
I2
sg237
I0
sg141
I3
sg36
I177
sg72
I2
sg270
I12
sg162
I17
sg99
I53
sg309
I0
sg88
I0
sg342
I0
sg74
I12
sg103
I3
sg43
I252
sg27
I44
sg255
I36
sg256
I1
sg201
I78
sS'Thenn Warg'
p347
I2
sg194
I0
sg284
I0
sg320
I0
sg77
I9
sg222
I0
sg297
I22
sg133
I0
sg232
I0
sg221
I31
sg8
I0
sg321
I0
sg336
I0
sg78
I13
sg154
I57
sg104
I2
sg120
I2
sg298
I0
sg288
I16
sg168
I9
sg31
I39
sg121
I0
sg105
I45
sg20
I76
sg12
I0
sg122
I171
sg285
I2
sg178
I107
sg155
I26
sg224
I0
sg195
I0
sg179
I0
sg96
I23
sg241
I83
sg15
I5
sg322
I1
sg202
I0
sg233
I6
sg209
I3
sg177
I32
sg258
I0
sg153
I2
sg61
I34
sg142
I0
sg299
I0
sg180
I0
sg80
I33
sS'Oberyn Martell'
p348
I11
sg323
I0
sg210
I34
sg23
I0
sg244
I0
sg132
I0
sg175
I0
sg249
I0
sg124
I0
sg257
I0
sg52
I11
sg28
I200
sS'Dagos Manwoody'
p349
I0
sg165
I0
sg106
I0
sg33
I111
sS'Deziel Dalt'
p350
I0
sg292
I31
sg166
I2
sg275
I3
sg147
I0
sg273
I39
sg32
I233
sg181
I1
sg286
I22
sg211
I146
sg229
I0
sS'Ellaria Sand'
p351
I2
sg102
I30
sg40
I43
sg87
I0
sg259
I0
sg144
I0
sg167
I0
sg263
I0
sg125
I0
sg145
I0
sg187
I6
sg164
I2
sg287
I5
sg234
I0
sg188
I10
sg4
I40
sg5
I25
sg324
I0
sg126
I0
sg238
I7
sg272
I23
sg196
I25
sg274
I38
sg337
I0
sg212
I34
sg325
I0
sg182
I6
sg108
I0
sg127
I0
sg326
I0
sg327
I0
sg213
I13
sS'Lowell'
p352
I0
sg183
I0
sg203
I14
sg260
I0
sg156
I0
sg157
I0
sg128
I0
sS'Blackmont'
p353
I2
sg301
I7
sg328
I0
sg97
I2
sg14
I175
sg239
I0
sg184
I6
sg81
I4
sg18
I177
sg204
I52
sg50
I0
sg214
I8
sg215
I0
sg276
I19
sg21
I5
sg62
I36
sg82
I8
sg331
I0
sg123
I0
sg130
I0
sg338
I16
sg261
I27
sg169
I25
sg339
I16
sg24
I7
sg253
I43
sg146
I0
sg310
I5
sg64
I88
sS'Morgan'
p354
I0
sg186
I3
sg340
I0
sg47
I13
sg225
I0
sg262
I30
sg197
I6
sg343
I0
sg344
I0
sg29
I50
sg98
I0
sg30
I76
sg254
I19
sg330
I27
sg134
I0
sg86
I0
sg289
I0
sg70
I36
sg227
I3
sg135
I0
sS'Styr'
p355
I4
sg66
I0
sg341
I0
sg228
I11
sg148
I11
sg149
I0
sg150
I2
sg59
I0
sg198
I0
sg319
I0
sg332
I0
sg75
I23
sg53
I262
sa(dp356
g190
I0
sg2
I250
sg55
I31
sg184
I6
sg3
I20
sg278
I0
sg6
I141
sg231
I0
sg279
I7
sg90
I4
sg152
I0
sg353
I2
sg56
I25
sg214
I8
sg159
I0
sg9
I2
sg171
I0
sg301
I7
sg265
I30
sg19
I249
sg48
I0
sg149
I0
sg58
I21
sg137
I0
sg282
I2
sg11
I151
sg284
I0
sg225
I0
sg111
I0
sg266
I2
sg91
I8
sg13
I6
sg14
I175
sg172
I57
sg106
I0
sg101
I0
sg334
I0
sg246
I3
sg217
I0
sg181
I7
sg112
I0
sg239
I0
sg346
I0
sg173
I58
sg306
I2
sg200
I16
sg84
I7
sg307
I11
sg222
I0
sg316
I0
sg26
I0
sg317
I0
sg218
I3
sg138
I2
sg337
I0
sg319
I2
sg7
I15
sg191
I16
sg219
I0
sg92
I0
sg295
I14
sg174
I62
sg253
I43
sg18
I177
sg206
I16
sg38
I247
sg207
I0
sg73
I96
sg39
I9
sg318
I0
sg192
I15
sg113
I0
sg44
I2
sg114
I0
sg303
I5
sg160
I0
sg321
I0
sg251
I19
sg286
I22
sg267
I15
sg296
I19
sg340
I0
sg252
I0
sg46
I20
sg93
I3
sg57
I6
sg280
I2
sg331
I0
sg281
I0
sg94
I7
sg10
I348
sg351
I2
sg79
I40
sg139
I0
sg115
I0
sg102
I30
sg123
I0
sg332
I0
sg42
I13
sg129
I0
sg120
I2
sg268
I28
sg37
I27
sg17
I156
sg298
I0
sg49
I10
sg308
I9
sg87
I0
sg291
I0
sg116
I0
sg135
I0
sg60
I13
sg117
I2
sg143
I9
sg130
I0
sg259
I0
sg64
I94
sg63
I12
sg166
I2
sg22
I114
sg85
I69
sg283
I7
sg220
I0
sg161
I15
sg312
I6
sg304
I24
sg254
I19
sg144
I0
sg339
I17
sg68
I13
sg118
I0
sg335
I0
sg24
I7
sg269
I0
sS'Axell Florent'
p357
I0
sg154
I64
sg140
I0
sg243
I2
sg141
I3
sg36
I184
sg72
I2
sg162
I17
sg309
I0
sg88
I0
sg224
I0
sg270
I27
sg103
I3
sg43
I256
sg27
I44
sg255
I36
sg256
I1
sg201
I78
sg347
I2
sg194
I0
sg176
I9
sg320
I0
sg77
I9
sg119
I0
sg297
I22
sg232
I0
sg221
I31
sg8
I0
sg223
I0
sg336
I0
sg78
I13
sg247
I0
sg104
I2
sg325
I0
sg163
I13
sg271
I29
sg188
I10
sg67
I0
sg344
I0
sg211
I152
sg31
I39
sg121
I0
sg105
I45
sg20
I76
sg12
I0
sg122
I178
sg285
I2
sg178
I113
sg155
I26
sS'Mace Tyrell'
p358
I4
sg195
I0
sg179
I0
sg96
I23
sg241
I90
sg15
I5
sg322
I1
sg202
I0
sg233
I8
sg209
I3
sg177
I32
sg258
I0
sg153
I2
sg61
I34
sg142
I0
sg299
I0
sg180
I0
sg80
I33
sg168
I9
sg323
I0
sg288
I16
sg300
I5
sg248
I0
sg132
I0
sg175
I0
sg249
I0
sg124
I0
sg257
I0
sg52
I11
sg28
I205
sg349
I0
sg165
I0
sg313
I21
sg208
I0
sg69
I57
sg292
I40
sg33
I111
sg134
I0
sg273
I43
sg32
I233
sg197
I6
sg107
I24
sg34
I2
sg293
I31
sg35
I43
sg71
I14
sS'Dwarf 5'
p359
I0
sS'Dwarf 4'
p360
I0
sS'Dwarf 3'
p361
I0
sS'Dwarf 2'
p362
I0
sS'Dwarf 1'
p363
I0
sg314
I9
sg167
I0
sg263
I0
sg125
I0
sg86
I0
sg145
I0
sg187
I6
sg287
I5
sg234
I0
sg235
I47
sg4
I40
sg5
I25
sg324
I0
sg126
I0
sg238
I7
sg272
I23
sg196
I25
sg274
I42
sg212
I34
sg275
I3
sg182
I6
sg108
I0
sg127
I0
sS'Walda Bolton'
p364
I2
sg326
I0
sg327
I0
sg213
I13
sg352
I0
sg183
I0
sg203
I14
sg260
I0
sg156
I0
sg157
I0
sg128
I0
sg169
I25
sg226
I6
sg147
I0
sg328
I0
sg40
I43
sg97
I2
sg51
I10
sg16
I32
sg329
I0
sg81
I4
sg185
I0
sg204
I60
sg50
I0
sg244
I0
sg215
I0
sg21
I5
sg62
I36
sg82
I8
sg83
I58
sg348
I13
sg109
I0
sg338
I17
sg131
I0
sg261
I27
sg350
I0
sg65
I2
sg25
I19
sg146
I0
sg310
I5
sg210
I47
sg354
I0
sg186
I3
sg23
I0
sg47
I13
sg95
I0
sg262
I30
sg342
I0
sg343
I0
sg276
I19
sg29
I52
sg98
I0
sg30
I76
sg74
I12
sg133
I0
sg164
I2
sg237
I0
sg289
I0
sg70
I36
sg227
I3
sg99
I55
sg355
I4
sg66
I0
sg75
I23
sg341
I0
sg228
I11
sg148
I11
sS'Tansy'
p365
I0
sg330
I28
sg150
I2
sg59
I0
sg198
I0
sg229
I0
sg41
I11
sg193
I24
sg53
I265
sa(dp366
g2
I260
sg3
I20
sg231
I0
sg152
I0
sg291
I0
sg48
I0
sg11
I151
sg275
I3
sg69
I57
sg26
I2
sg218
I3
sg174
I62
sg73
I96
sg113
I0
sg143
I9
sg107
I24
sg251
I19
sg153
I2
sg252
I0
sg46
I22
sg93
I3
sS'Farmer'
p367
I0
sg10
I370
sg79
I41
sg102
I30
sg42
I16
sS'Sally'
p368
I0
sg144
I0
sg312
I6
sg161
I15
sg208
I0
sg36
I194
sg74
I12
sg347
I2
sg194
I0
sS"Mole's Town whore"
p369
I0
sg232
I0
sg235
I47
sg78
I13
sg247
I0
sS'Oznak zo Pahl'
p370
I0
sg120
I2
sg121
I0
sg20
I77
sg285
I4
sg178
I115
sg142
I0
sg257
I0
sg258
I0
sg249
I0
sS'Hizdahr zo Loraq'
p371
I0
sg28
I215
sg313
I23
sg273
I43
sg34
I2
sg359
I0
sg360
I0
sg361
I0
sg362
I0
sg363
I0
sg314
I9
sg125
I0
sg145
I0
sS'Slave master'
p372
I0
sg196
I25
sg127
I0
sg276
I19
sg226
I6
sg328
I0
sg51
I10
sg16
I32
sg184
I6
sg214
I8
sg62
I36
sg82
I8
sg129
I0
sg130
I0
sg131
I0
sg24
I7
sg147
I0
sg186
I3
sg340
I0
sg341
I0
sg67
I0
sg262
I30
sg342
I0
sg343
I0
sg344
I0
sg98
I0
sg30
I76
sg70
I36
sg188
I10
sg332
I0
sg41
I11
sg75
I23
sg190
I0
sg278
I0
sg353
I2
sg56
I25
sg171
I0
sg336
I0
sg266
I2
sg246
I3
sg239
I0
sg234
I0
sg200
I16
sg64
I97
sg222
I0
sg86
I0
sg148
I11
sg33
I111
sS'Olly'
p373
I0
sg38
I247
sg192
I15
sS'Whore'
p374
I0
sg44
I2
sg160
I0
sg267
I15
sg94
I7
sg193
I24
sg17
I156
sg308
I9
sg60
I13
sg27
I44
sg221
I31
sg118
I0
sg310
I5
sg269
I0
sg357
I0
sg253
I43
sg164
I2
sg103
I3
sg149
I0
sg255
I40
sg256
I1
sg77
I9
sg297
I22
sg177
I36
sg66
I0
sS"Olly's mother"
p375
I0
sg8
I0
sg104
I2
sg298
I0
sg187
I6
sg122
I189
sg155
I26
sg195
I0
sg233
I8
sg61
I34
sg180
I0
sg348
I22
sg210
I47
sg225
I0
sg349
I0
sg106
I0
sg292
I40
sg293
I31
sg259
I0
sg167
I0
sg238
I7
sg274
I42
sg57
I6
sg325
I0
sg364
I2
sg203
I14
sg183
I0
sg157
I0
sg97
I2
sg14
I175
sg18
I185
sg215
I0
sg21
I5
sg83
I58
sg146
I0
sg95
I0
sg263
I0
sg134
I0
sg248
I0
sg289
I0
sg227
I3
sg228
I11
sg365
I0
sg198
I0
sg7
I15
sg90
I4
sg58
I21
sg13
I6
sg172
I60
sg101
I0
sg334
I0
sg217
I0
sg112
I0
sg346
I0
sg306
I2
sg84
I7
sg307
I11
sg316
I0
sg317
I0
sg191
I19
sg358
I4
sg206
I16
sg207
I0
sg39
I9
sg114
I0
sg281
I0
sS'Slave'
p376
I0
sg268
I28
sg49
I10
sg116
I0
sg22
I114
sg85
I72
sg283
I7
sg304
I29
sg335
I0
sg140
I0
sg270
I27
sg141
I3
sg72
I2
sg162
I17
sg309
I0
sg254
I19
sg43
I258
sg320
I0
sg321
I0
sg163
I13
sg271
I29
sg211
I154
sg105
I45
sg179
I0
sg96
I25
sg241
I92
sg209
I3
sg299
I0
sg323
I0
sg300
I7
sg124
I0
sg52
I11
sg165
I0
sg350
I0
sg166
I2
sg181
I7
sg286
I22
sg351
I4
sg71
I16
sg37
I27
sg287
I5
sg168
I9
sg4
I40
sg5
I25
sg324
I0
sg272
I23
sg326
I0
sg327
I0
sg352
I0
sg260
I0
sg156
I0
sg128
I0
sg185
I0
sg50
I0
sg109
I0
sg169
I25
sg65
I2
sg25
I19
sg132
I0
sg150
I2
sg53
I266
sg55
I33
sg6
I141
sg279
I7
sg92
I0
sg159
I0
sg9
I2
sg265
I30
sg19
I257
sg137
I0
sg176
I14
sS"Mole's Town madam"
p377
I0
sg111
I0
sg91
I8
sg15
I5
sg173
I62
sg237
I0
sg138
I2
sg337
I0
sg219
I0
sg318
I0
sS'Guymon'
p378
I0
sg295
I16
sg296
I19
sg280
I2
sg139
I0
sg115
I0
sS"Hizdahr zo Loraq's manservant"
p379
I0
sg331
I0
sg282
I2
sg117
I2
sg63
I12
sg220
I0
sg68
I13
sg243
I2
sg88
I0
sg31
I39
sg319
I2
sg201
I78
sg175
I0
sg284
I0
sg119
I0
sg303
I5
sg223
I0
sg154
I67
sg12
I0
sg224
I0
sg322
I1
sg202
I0
sg80
I33
sg123
I0
sg23
I0
sg244
I0
sg32
I234
sg35
I43
sg40
I43
sg87
I0
sg135
I0
sg126
I0
sg212
I34
sg182
I6
sg108
I0
sg213
I13
sg59
I0
sg301
I9
sg329
I0
sg81
I4
sg204
I60
sg330
I28
sg338
I17
sg261
I29
sg339
I17
sg354
I0
sg47
I13
sg288
I16
sg197
I6
sg29
I52
sg133
I0
sg99
I55
sg355
I4
sg229
I0
sa(dp380
g2
I267
sg3
I20
sg231
I0
sg152
I0
sg291
I0
sg48
I0
sg11
I151
sg275
I3
sg350
I0
sg26
I2
sg218
I3
sg174
I62
sg73
I96
sS"Craster's last son"
p381
I0
sg113
I0
sg143
I9
sg107
I24
sg251
I19
sg153
I2
sg252
I0
sg46
I28
sg93
I3
sg367
I0
sg10
I385
sg79
I43
sg102
I30
sg42
I22
sg368
I0
sg144
I0
sg312
I6
sg161
I15
sg208
I0
sg36
I202
sg74
I12
sg347
I2
sg194
I0
sg176
I16
sg232
I0
sg235
I47
sg78
I15
sg247
I0
sg370
I0
sg120
I2
sg121
I0
sg20
I77
sg285
I8
sg68
I13
sg142
I0
sg257
I0
sg258
I0
sg249
I0
sg371
I0
sg28
I225
sg313
I23
sg273
I48
sg34
I2
sg359
I0
sg360
I0
sg361
I0
sg362
I0
sg363
I0
sg314
I9
sg125
I0
sg145
I0
sg372
I0
sg196
I25
sg127
I0
sg276
I19
sg353
I2
sg328
I0
sg51
I10
sg239
I0
sg184
I6
sg214
I8
sg62
I36
sg82
I8
sg129
I0
sg130
I0
sg131
I0
sg24
I7
sg147
I0
sg186
I3
sg66
I0
sg341
I0
sg187
I6
sg262
I32
sg342
I0
sg343
I0
sg344
I0
sg98
I0
sg30
I76
sg70
I36
sg188
I10
sg332
I0
sg41
I11
sg75
I25
sg190
I0
sg278
I0
sg226
I6
sg56
I25
sg171
I0
sg336
I0
sg266
I2
sg246
I3
sg16
I32
sg234
I0
sg200
I16
sg64
I97
sg222
I0
sg86
I0
sg148
I11
sg33
I111
sg373
I2
sg38
I247
sg192
I15
sg374
I0
sg44
I2
sg160
I0
sg267
I18
sg94
I7
sg193
I24
sg17
I163
sg308
I9
sg60
I13
sg27
I44
sg221
I31
sg118
I0
sg310
I5
sg269
I0
sg357
I0
sg253
I45
sg164
I2
sg103
I3
sg149
I0
sg255
I40
sg256
I1
sg77
I9
sg297
I22
sg177
I38
sg340
I0
sg375
I0
sg8
I0
sg104
I2
sg298
I0
sg67
I0
sS"White Walkers' master"
p382
I7
sg122
I189
sg155
I26
sg195
I0
sg233
I8
sg61
I36
sg180
I0
sg348
I22
sg210
I47
sg225
I0
sg349
I0
sg106
I0
sg292
I40
sg211
I160
sg259
I0
sg167
I0
sg238
I7
sg274
I42
sg57
I6
sg325
I0
sg364
I2
sg203
I14
sg183
I0
sg157
I0
sg97
I2
sg14
I175
sg337
I0
sg215
I0
sg21
I5
sg331
I0
sg146
I0
sg95
I0
sg263
I0
sg134
I0
sg248
I0
sg289
I0
sg227
I3
sg228
I11
sg365
I0
sg198
I0
sS'Morag'
p383
I0
sg7
I15
sg90
I4
sg58
I21
sg13
I6
sg172
I60
sg101
I0
sg334
I0
sg217
I0
sg112
I0
sg346
I0
sg306
I2
sg84
I7
sg307
I11
sg316
I0
sg317
I0
sg191
I21
sg358
I4
sg206
I16
sg207
I0
sg39
I9
sg114
I0
sg293
I31
sg281
I0
sg376
I0
sg268
I28
sg49
I10
sg116
I0
sg22
I115
sg85
I74
sg283
I7
sg304
I30
sg335
I0
sg140
I0
sg270
I27
sg141
I3
sg72
I2
sg162
I17
sg309
I0
sg254
I19
sg43
I271
sg320
I0
sg321
I0
sg163
I13
sg271
I33
sg105
I45
sg179
I0
sg80
I33
sg241
I95
sg209
I3
sg299
I0
sg323
I0
sg300
I7
sg124
I0
sg52
I11
sg165
I0
sg69
I59
sg166
I2
sg181
I7
sg286
I22
sg351
I4
sg71
I19
sg37
I29
sS'White Walker'
p384
I7
sg287
I5
sg168
I9
sg4
I40
sg5
I25
sg324
I0
sg272
I23
sg326
I0
sg327
I0
sg352
I0
sg260
I0
sg156
I0
sg128
I0
sg185
I0
sg50
I0
sg109
I0
sg169
I25
sg65
I2
sg25
I19
sg132
I0
sg150
I2
sg53
I266
sg55
I35
sg6
I141
sg279
I7
sg92
I0
sg159
I0
sg9
I2
sg265
I31
sg19
I269
sg137
I0
sg369
I0
sg377
I0
sg111
I0
sg91
I8
sg15
I5
sg173
I70
sg237
I0
sg138
I2
sg18
I185
sS'Ser Pounce'
p385
I2
sg219
I0
sg318
I0
sg378
I0
sg295
I16
sg296
I21
sg280
I2
sg139
I0
sg115
I0
sg379
I0
sg83
I58
sg282
I2
sg117
I2
sg63
I14
sg220
I0
sg178
I115
sg243
I2
sg88
I0
sg31
I39
sg319
I2
sg201
I81
sg175
I2
sg284
I0
sg119
I0
sg303
I5
sg223
I0
sg154
I67
sg12
I0
sg224
I0
sg322
I1
sg202
I0
sg96
I25
sg123
I0
sg23
I0
sg244
I0
sg32
I236
sg35
I50
sg40
I50
sg87
I0
sg99
I55
sg126
I0
sg212
I34
sg182
I6
sg108
I0
sg213
I13
sg59
I0
sg301
I11
sg329
I0
sg81
I4
sg204
I69
sg330
I28
sg338
I17
sg261
I29
sg339
I17
sg354
I0
sg47
I13
sg288
I16
sg197
I6
sg29
I54
sg133
I0
sg135
I0
sg355
I4
sg229
I0
sa(dp386
g2
I269
sg3
I20
sg231
I0
sg152
I0
sg291
I0
sg48
I0
sg11
I151
sg275
I3
sg350
I0
sg26
I2
sg218
I3
sS'Donnel Waynwood'
p387
I0
sg174
I62
sg73
I96
sg381
I0
sg113
I0
sg143
I9
sg107
I24
sg251
I19
sg153
I2
sg252
I0
sg46
I31
sg93
I7
sg367
I0
sg10
I389
sg79
I43
sg102
I30
sg42
I25
sg368
I0
sg144
I0
sg312
I6
sg161
I15
sg208
I0
sg36
I207
sg74
I14
sg347
I2
sg194
I0
sg369
I0
sg232
I0
sg235
I47
sg78
I15
sg247
I0
sg370
I0
sg120
I2
sg121
I0
sg20
I79
sg285
I17
sg178
I115
sg142
I0
sg257
I0
sg258
I0
sg249
I0
sg371
I0
sg28
I245
sg313
I25
sg273
I56
sg34
I2
sg359
I0
sg360
I0
sg361
I0
sg362
I0
sg363
I0
sg314
I9
sg125
I0
sg145
I0
sg372
I0
sg196
I25
sg127
I0
sg276
I19
sg226
I6
sg328
I0
sg51
I10
sg16
I32
sg184
I6
sg214
I8
sg62
I36
sg82
I8
sg129
I0
sg130
I0
sg131
I0
sg24
I7
sg147
I0
sg186
I3
sg340
I0
sg341
I0
sg67
I0
sg382
I7
sg342
I0
sg343
I0
sg344
I0
sg98
I0
sg30
I76
sg70
I36
sg188
I10
sg332
I0
sg41
I11
sg75
I25
sg190
I0
sg278
I0
sg353
I2
sg56
I25
sg171
I0
sg336
I0
sg266
I2
sg246
I3
sg239
I0
sg234
I0
sg200
I16
sg64
I97
sg222
I0
sg86
I0
sg148
I13
sg33
I114
sg373
I2
sg38
I247
sg192
I15
sg374
I0
sg44
I2
sg160
I0
sg267
I21
sg94
I7
sg193
I24
sg17
I170
sg308
I9
sg60
I13
sg27
I44
sg221
I31
sg118
I0
sg310
I5
sg269
I0
sg357
I0
sg253
I47
sg164
I2
sg103
I3
sg149
I0
sg255
I42
sg256
I1
sg77
I9
sg297
I22
sg177
I38
sg66
I0
sg375
I0
sg8
I0
sg104
I2
sg298
I0
sg187
I6
sg262
I32
sg122
I192
sg155
I26
sg195
I0
sg233
I8
sg61
I36
sg180
I0
sg348
I25
sg210
I47
sg225
I0
sg349
I0
sg106
I0
sg292
I40
sg293
I31
sg259
I0
sg167
I0
sg238
I7
sg274
I42
sg57
I6
sg325
I0
sg364
I2
sg203
I14
sg183
I0
sg157
I0
sg97
I2
sg14
I175
sg18
I188
sg215
I0
sg21
I5
sg331
I0
sg146
I0
sg95
I0
sg263
I0
sg134
I0
sg248
I0
sg289
I0
sg227
I3
sg228
I11
sg365
I0
sg198
I0
sg383
I0
sg7
I15
sg90
I4
sg58
I21
sg13
I6
sg172
I60
sg101
I0
sg334
I0
sg217
I0
sg112
I0
sg346
I0
sg306
I2
sg84
I7
sg307
I11
sg316
I0
sg317
I0
sg191
I28
sg358
I4
sg206
I16
sg207
I0
sg39
I11
sg114
I0
sg281
I0
sg376
I0
sg268
I28
sg49
I10
sg116
I0
sg22
I117
sg85
I74
sg283
I7
sg304
I33
sg335
I0
sg140
I0
sg270
I27
sg141
I3
sg72
I2
sg162
I17
sg309
I0
sg254
I19
sg43
I286
sg320
I0
sg321
I0
sg163
I13
sg271
I33
sg211
I163
sg105
I45
sg179
I0
sg80
I33
sg241
I96
sg209
I3
sg299
I0
sg323
I0
sg300
I7
sg124
I0
sg52
I11
sg165
I0
sg69
I61
sg166
I2
sg181
I7
sg286
I22
sg351
I4
sg71
I19
sg37
I32
sg384
I7
sg287
I5
sg168
I9
sg4
I40
sg5
I25
sg324
I0
sg272
I23
sg326
I0
sg327
I0
sg352
I0
sg260
I0
sg156
I0
sg128
I0
sg185
I0
sg50
I0
sg109
I0
sg169
I25
sg65
I2
sg25
I19
sg132
I0
sg150
I2
sg53
I266
sg55
I46
sg6
I141
sg279
I7
sg92
I0
sg159
I0
sg9
I2
sg265
I35
sg19
I269
sg137
I0
sg176
I16
sg377
I0
sg111
I0
sg91
I8
sg15
I5
sg173
I75
sg237
I0
sg138
I2
sg337
I0
sg385
I3
sg219
I0
sg318
I0
sg378
I0
sg295
I16
sg296
I21
sg280
I2
sg139
I0
sg115
I0
sg379
I0
sg83
I58
sg282
I2
sg117
I2
sg63
I14
sg220
I0
sg68
I13
sg243
I2
sg88
I0
sg31
I39
sg319
I2
sg201
I88
sg175
I2
sg284
I0
sg119
I0
sg303
I5
sg223
I0
sg154
I67
sg12
I0
sg224
I0
sg322
I1
sg202
I0
sg96
I38
sg123
I0
sg23
I0
sg244
I0
sg32
I239
sg35
I50
sg40
I50
sg87
I0
sg135
I0
sg126
I0
sg212
I34
sg182
I6
sg108
I0
sg213
I13
sg59
I0
sg301
I22
sg329
I0
sg81
I4
sg204
I71
sg330
I28
sg338
I17
sg261
I29
sg339
I17
sg354
I0
sg47
I13
sg288
I16
sg197
I6
sg29
I54
sg133
I0
sg99
I55
sg355
I4
sg229
I0
sa(dp388
g2
I275
sg3
I20
sg231
I0
sg152
I0
sg291
I0
sg48
I0
sg11
I161
sg275
I3
sg350
I0
sg26
I2
sg218
I3
sg387
I0
sg174
I62
sg73
I96
sg381
I0
sg113
I0
sg143
I9
sg107
I24
sg251
I19
sg153
I2
sg252
I0
sg46
I31
sg93
I7
sg367
I0
sg10
I409
sg79
I43
sg102
I30
sg42
I26
sg368
I0
sg144
I0
sg312
I6
sg161
I15
sg208
I0
sS'Goatherd'
p389
I0
sg36
I210
sg74
I14
sg347
I2
sg194
I0
sg176
I16
sg232
I0
sg235
I47
sg78
I15
sg247
I0
sg370
I0
sg120
I2
sg121
I0
sg20
I79
sg285
I17
sg68
I13
sg142
I0
sg257
I0
sg258
I0
sg249
I0
sg371
I2
sg28
I247
sg313
I25
sg273
I56
sg34
I2
sg359
I0
sg360
I0
sg361
I0
sg362
I0
sg363
I0
sg314
I9
sg125
I0
sg145
I0
sg372
I0
sg196
I25
sg127
I0
sg276
I19
sg353
I2
sg328
I0
sg51
I10
sg239
I0
sg184
I6
sg214
I8
sg62
I38
sg82
I8
sg129
I0
sg130
I0
sg131
I0
sg24
I7
sg147
I0
sg186
I3
sg66
I0
sg341
I0
sg187
I6
sg262
I33
sg342
I0
sg343
I0
sg344
I0
sg98
I0
sg30
I76
sg70
I36
sg188
I10
sg332
I0
sg41
I11
sg75
I25
sg190
I0
sg278
I0
sg226
I6
sg56
I25
sg171
I0
sg336
I0
sg266
I2
sg246
I3
sg16
I32
sg234
I0
sg200
I16
sg64
I103
sg222
I0
sg86
I0
sg148
I16
sg33
I114
sg373
I2
sg38
I247
sg192
I24
sg374
I0
sg44
I2
sg160
I0
sg267
I21
sg94
I7
sg193
I24
sg17
I170
sg308
I9
sg60
I13
sg27
I44
sg221
I31
sg118
I0
sg310
I5
sg269
I0
sg357
I0
sg253
I47
sg164
I2
sg103
I3
sg149
I0
sg255
I42
sg256
I1
sg77
I9
sg297
I22
sg177
I38
sg340
I0
sg375
I0
sg8
I0
sg104
I2
sg298
I0
sg67
I0
sg382
I7
sg122
I207
sg155
I26
sg195
I0
sg233
I8
sg61
I36
sg180
I0
sg348
I27
sg210
I47
sg225
I0
sg349
I0
sg106
I0
sg292
I42
sg211
I164
sg259
I0
sg167
I0
sg238
I7
sg274
I44
sg57
I6
sg325
I0
sg364
I2
sg203
I14
sg183
I0
sg157
I0
sg97
I2
sg14
I175
sg337
I0
sg215
I0
sg21
I5
sg331
I0
sg146
I0
sg95
I0
sg263
I0
sg134
I0
sg248
I0
sg289
I0
sg227
I3
sg228
I11
sg365
I0
sg198
I0
sg383
I0
sg7
I15
sg90
I4
sg58
I23
sg13
I6
sg172
I64
sg101
I0
sg334
I0
sg217
I0
sg112
I0
sg346
I0
sg306
I4
sg84
I7
sg307
I11
sg316
I0
sg317
I0
sg191
I28
sg358
I6
sg206
I16
sg207
I0
sg39
I11
sg114
I0
sg293
I33
sg281
I0
sg376
I0
sg268
I28
sg49
I10
sg116
I0
sg22
I117
sg85
I74
sg283
I7
sg304
I33
sg335
I0
sg140
I0
sg270
I36
sg141
I3
sg72
I2
sg162
I17
sg309
I0
sg254
I19
sg43
I286
sg320
I0
sg321
I0
sg163
I15
sg271
I33
sg105
I45
sg179
I0
sg80
I33
sg241
I98
sg209
I3
sg299
I0
sg323
I0
sg300
I7
sg124
I0
sg52
I11
sg165
I0
sg69
I61
sg166
I2
sg181
I7
sg286
I22
sg351
I4
sg71
I19
sg37
I32
sg384
I7
sg287
I5
sg168
I9
sg4
I40
sg5
I25
sg324
I0
sg272
I23
sg326
I0
sg327
I0
sg352
I0
sg260
I0
sg156
I0
sg128
I0
sg185
I0
sg50
I0
sg109
I0
sg169
I25
sg65
I2
sg25
I19
sg132
I0
sS'Lhara'
p390
I0
sg150
I2
sg53
I268
sg55
I46
sg6
I141
sg279
I7
sg92
I0
sg159
I0
sg9
I2
sg265
I35
sg19
I275
sg137
I0
sg369
I0
sg377
I0
sg111
I0
sg91
I8
sg15
I5
sg173
I75
sg237
I0
sg138
I2
sg18
I188
sg385
I8
sg219
I0
sg318
I0
sg378
I0
sg295
I16
sg296
I21
sg280
I2
sg139
I0
sg115
I0
sg379
I2
sg83
I58
sg282
I2
sS'Tycho Nestoris'
p391
I2
sg117
I2
sg63
I14
sg220
I0
sg178
I123
sg243
I2
sg88
I0
sg31
I39
sg319
I2
sg201
I88
sg175
I2
sg284
I0
sg119
I0
sg303
I5
sg223
I0
sg154
I69
sg12
I0
sg224
I0
sg322
I1
sg202
I0
sg96
I38
sg123
I0
sg23
I0
sg244
I0
sg32
I245
sg35
I50
sg40
I50
sg87
I0
sg99
I55
sg126
I0
sg212
I34
sg182
I6
sg108
I0
sg213
I13
sg59
I0
sg301
I22
sg329
I0
sg81
I4
sg204
I71
sg330
I28
sg338
I17
sg261
I29
sg339
I17
sg354
I0
sg47
I13
sg288
I16
sg197
I8
sg29
I56
sg133
I0
sg135
I0
sg355
I4
sg229
I0
sa(dp392
g2
I275
sg3
I20
sg231
I0
sg152
I0
sg291
I0
sg48
I0
sg11
I161
sg275
I3
sg350
I0
sg26
I2
sg218
I3
sg387
I0
sg174
I66
sg73
I96
sg381
I0
sg113
I0
sg143
I9
sg107
I24
sg251
I19
sg153
I2
sg252
I0
sg46
I31
sg93
I15
sg367
I0
sg10
I426
sg79
I43
sg102
I30
sg42
I26
sg368
I0
sg144
I0
sg312
I6
sg161
I19
sg208
I0
sg389
I0
sg36
I219
sg74
I14
sg347
I2
sg194
I0
sg369
I0
sg232
I0
sg235
I47
sg78
I15
sg247
I0
sg370
I0
sg120
I2
sg121
I0
sg20
I87
sg285
I17
sg178
I124
sg142
I0
sg257
I0
sg258
I0
sg249
I0
sg371
I4
sg28
I263
sg313
I33
sg273
I56
sg34
I2
sg359
I0
sg360
I0
sg361
I0
sg362
I0
sg363
I0
sg314
I9
sg125
I0
sg145
I0
sg372
I0
sg196
I25
sg127
I0
sg276
I19
sg226
I6
sg328
I0
sg51
I10
sg16
I32
sg184
I6
sg214
I8
sg62
I38
sg82
I8
sg129
I0
sg130
I0
sg131
I0
sg24
I7
sg147
I0
sg186
I3
sg340
I0
sg341
I0
sg67
I0
sg382
I7
sg342
I0
sg343
I0
sg344
I0
sg98
I0
sg30
I76
sg70
I36
sg188
I10
sg332
I0
sg41
I11
sg75
I25
sg190
I0
sg278
I0
sg353
I2
sg56
I25
sg171
I0
sg336
I0
sg266
I2
sg246
I3
sg239
I0
sg234
I0
sg200
I16
sg64
I103
sg222
I0
sg86
I0
sg390
I0
sg33
I121
sg373
I2
sg38
I247
sg192
I24
sg374
I0
sg44
I2
sg160
I2
sg267
I21
sg94
I7
sg193
I24
sg17
I170
sg308
I9
sg60
I13
sg27
I44
sg221
I31
sg118
I0
sg310
I5
sg269
I0
sg357
I0
sg253
I47
sg164
I2
sg103
I3
sg149
I0
sg255
I44
sg256
I1
sg77
I9
sg297
I22
sg177
I38
sg66
I0
sg375
I0
sg8
I0
sg104
I2
sg298
I0
sg187
I6
sg262
I33
sg122
I209
sg155
I26
sg195
I0
sg233
I8
sg61
I36
sg180
I0
sg348
I37
sg210
I47
sg225
I0
sg349
I0
sg106
I0
sg292
I42
sg293
I33
sg259
I0
sg167
I0
sg238
I7
sg274
I44
sg57
I6
sg325
I0
sg364
I2
sg203
I14
sg183
I0
sg157
I0
sg97
I2
sg14
I177
sg18
I194
sg215
I0
sg21
I5
sg331
I0
sS'Dying man'
p393
I0
sg146
I0
sg95
I0
sg263
I0
sg134
I0
sg248
I0
sg289
I0
sg227
I3
sg228
I11
sg365
I0
sg198
I0
sg383
I0
sg7
I15
sg90
I4
sg58
I23
sg13
I6
sg172
I64
sg101
I0
sg334
I0
sg217
I0
sg112
I0
sg346
I0
sg306
I4
sg84
I7
sg307
I11
sg316
I0
sg317
I0
sg191
I33
sg358
I6
sg206
I16
sg207
I0
sg39
I11
sg114
I0
sg281
I0
sg376
I0
sg268
I28
sg49
I10
sg116
I0
sg22
I118
sg85
I77
sg283
I7
sg304
I36
sg335
I0
sg140
I0
sg270
I36
sg141
I3
sg72
I2
sg162
I17
sg309
I0
sg254
I19
sg43
I290
sg320
I0
sg321
I0
sg163
I15
sg391
I2
sg211
I167
sg105
I45
sg179
I0
sg80
I38
sg241
I102
sg209
I3
sg299
I0
sg323
I0
sg300
I7
sg124
I0
sg52
I11
sg165
I4
sg69
I61
sg166
I2
sg181
I14
sg286
I22
sg351
I4
sg71
I19
sg37
I32
sg384
I7
sg287
I5
sg168
I9
sg4
I40
sg5
I25
sg324
I0
sg272
I23
sg326
I0
sg327
I0
sg352
I0
sg260
I0
sg156
I0
sg128
I0
sg185
I0
sg50
I0
sg109
I0
sg169
I25
sg65
I2
sg25
I19
sg132
I0
sg148
I16
sg150
I2
sg53
I269
sg55
I53
sg6
I141
sg279
I7
sg92
I0
sg159
I0
sg9
I2
sg265
I35
sg19
I281
sg137
I0
sg176
I16
sg377
I0
sg111
I0
sg91
I8
sg15
I5
sg173
I77
sg237
I0
sg138
I2
sg337
I0
sg385
I10
sg219
I0
sg318
I0
sg378
I0
sg295
I20
sg296
I21
sg280
I2
sg139
I0
sg115
I0
sg379
I4
sg83
I58
sg282
I2
sg271
I33
sg117
I2
sg63
I16
sg220
I0
sg68
I13
sg243
I2
sg88
I0
sg31
I39
sg319
I2
sg201
I94
sg175
I2
sg284
I0
sg119
I0
sg303
I5
sg223
I0
sg154
I69
sg12
I0
sg224
I0
sg322
I1
sg202
I0
sg96
I47
sg123
I0
sg23
I0
sg244
I0
sg32
I252
sg35
I50
sg40
I50
sg87
I0
sg135
I0
sg126
I0
sg212
I34
sg182
I6
sg108
I0
sg213
I13
sg59
I0
sg301
I29
sg329
I0
sg81
I4
sg204
I71
sg330
I28
sg338
I17
sg261
I29
sg339
I17
sg354
I0
sg47
I13
sg288
I16
sg197
I8
sg29
I56
sg133
I0
sg99
I55
sg355
I4
sg229
I0
sa(dp394
g2
I275
sg3
I20
sg231
I0
sg152
I0
sg291
I0
sg48
I0
sg11
I165
sg275
I3
sg350
I0
sg26
I2
sg218
I3
sg387
I2
sg174
I66
sg73
I96
sg381
I0
sg113
I0
sg143
I9
sg107
I27
sg251
I19
sg153
I2
sg252
I0
sg46
I31
sg93
I16
sg367
I0
sg10
I438
sg79
I43
sg102
I30
sg42
I26
sS'Kegs'
p395
I0
sg368
I0
sg144
I0
sg312
I6
sg161
I19
sg208
I0
sg389
I0
sg36
I220
sg74
I14
sg347
I2
sg194
I0
sg176
I16
sg232
I0
sg235
I50
sg78
I15
sg247
I0
sg370
I0
sg120
I2
sg121
I0
sS'Daemon Sand'
p396
I0
sg20
I89
sg285
I17
sg68
I13
sg142
I0
sg257
I0
sg258
I0
sg249
I0
sg371
I4
sg28
I269
sg313
I33
sS'Ralf Kenning'
p397
I2
sg273
I56
sg34
I2
sg359
I0
sg360
I0
sg361
I0
sg362
I0
sg363
I0
sg314
I9
sg125
I0
sg145
I0
sg372
I0
sg196
I25
sg127
I0
sg276
I19
sg353
I2
sg328
I0
sg51
I10
sg239
I0
sg184
I6
sg214
I8
sg62
I40
sg82
I8
sg129
I0
sg130
I0
sg131
I0
sg24
I7
sg147
I0
sg186
I3
sg66
I0
sg341
I0
sg187
I6
sg382
I9
sg342
I0
sg343
I0
sg344
I0
sg98
I0
sg30
I78
sg70
I36
sg188
I10
sg332
I0
sg41
I11
sg75
I25
sg190
I0
sg278
I0
sg226
I6
sg56
I25
sg171
I0
sg336
I0
sg266
I2
sg246
I3
sg16
I32
sg234
I0
sg200
I16
sg64
I105
sg222
I0
sg86
I0
sg148
I16
sg33
I131
sg373
I2
sg38
I247
sg192
I24
sg374
I0
sg44
I2
sg160
I2
sg267
I21
sS'Mully'
p398
I0
sg94
I7
sg193
I24
sg17
I170
sg308
I9
sg60
I13
sS'Yohn Royce'
p399
I2
sg27
I44
sg221
I31
sg118
I0
sg310
I5
sg269
I0
sg357
I0
sg253
I52
sg164
I2
sg103
I3
sg149
I0
sg255
I46
sg256
I1
sg77
I9
sg297
I22
sg177
I43
sg340
I0
sg375
I0
sg8
I0
sg104
I2
sg298
I0
sg67
I0
sg262
I42
sg122
I215
sg155
I26
sg195
I0
sg233
I8
sg61
I36
sg180
I0
sg348
I53
sg210
I49
sg225
I0
sg349
I0
sg106
I0
sg292
I45
sg211
I173
sg259
I0
sg167
I0
sg238
I7
sg274
I44
sg57
I8
sg325
I0
sg364
I2
sg203
I14
sg183
I0
sg157
I0
sg97
I2
sg14
I177
sg337
I0
sg215
I0
sg21
I5
sg331
I0
sg393
I0
sg146
I0
sg95
I0
sS'Vance Corbray'
p400
I2
sg263
I0
sg134
I0
sg248
I0
sg289
I0
sg227
I3
sg228
I11
sg365
I0
sg198
I0
sg383
I0
sg7
I15
sg90
I4
sg58
I23
sg13
I6
sg172
I64
sg101
I0
sg334
I0
sg217
I0
sg112
I0
sg346
I0
sg306
I4
sg84
I7
sg307
I11
sg316
I0
sg317
I0
sg191
I33
sg358
I6
sg206
I16
sg207
I0
sg39
I11
sg114
I0
sg293
I33
sg281
I0
sg376
I0
sg268
I28
sg49
I10
sg116
I0
sg22
I118
sg85
I77
sg283
I7
sg304
I40
sg335
I0
sg140
I0
sg270
I43
sg141
I3
sg72
I2
sg162
I17
sg309
I0
sg254
I19
sg43
I293
sg320
I0
sg321
I0
sg163
I15
sg391
I2
sg105
I45
sg179
I0
sg80
I51
sg241
I103
sg209
I3
sg299
I0
sg323
I0
sg300
I7
sg124
I0
sg52
I11
sg165
I4
sg69
I65
sg166
I2
sg181
I14
sg286
I22
sg351
I6
sg71
I21
sg37
I32
sg384
I9
sg287
I5
sg168
I9
sg4
I40
sg5
I27
sg324
I0
sg272
I23
sg326
I0
sg327
I0
sg352
I0
sg260
I0
sg156
I0
sg128
I0
sg185
I0
sg50
I0
sg109
I0
sg169
I25
sg65
I2
sg25
I19
sg132
I0
sg390
I0
sg150
I2
sg53
I276
sg55
I55
sg6
I143
sg279
I7
sg92
I0
sg159
I0
sg9
I2
sg265
I35
sg19
I290
sg137
I0
sg369
I0
sg377
I0
sg111
I0
sg91
I8
sg15
I5
sg173
I78
sg237
I0
sg138
I2
sg18
I197
sg385
I15
sg219
I0
sg318
I0
sg378
I0
sg295
I20
sg296
I30
sg280
I2
sg139
I0
sg115
I0
sg379
I4
sg83
I58
sg282
I2
sg271
I33
sg117
I2
sg63
I16
sg220
I0
sg178
I124
sS'Adrack Humble'
p401
I0
sg243
I2
sg88
I0
sg31
I39
sg319
I2
sg201
I94
sg175
I2
sS'Black Jack Bulwer'
p402
I4
sg284
I0
sg119
I0
sg303
I5
sg223
I0
sg154
I69
sg12
I0
sg224
I0
sg322
I1
sg202
I0
sg96
I54
sg123
I0
sg23
I0
sg244
I0
sg32
I263
sg35
I52
sg40
I52
sg87
I0
sg99
I55
sg126
I0
sg212
I34
sg182
I6
sg108
I0
sg213
I13
sS'Anya Waynwood'
p403
I2
sg59
I0
sg301
I31
sg329
I0
sg81
I4
sg204
I71
sg330
I28
sg338
I17
sg261
I31
sg339
I17
sg354
I0
sg47
I13
sg288
I16
sg197
I8
sg29
I56
sg133
I0
sg135
I0
sg355
I6
sg229
I0
sa(dp404
g2
I275
sg3
I20
sg231
I0
sg152
I0
sg291
I0
sg48
I0
sg11
I165
sg275
I3
sg350
I0
sg26
I2
sg218
I3
sg387
I2
sg174
I66
sg73
I96
sg381
I0
sg113
I0
sg143
I9
sg107
I27
sg251
I19
sg153
I2
sg252
I0
sg46
I31
sg93
I16
sg367
I0
sg10
I438
sg79
I43
sg102
I30
sg42
I26
sg395
I0
sg368
I0
sg144
I0
sg312
I6
sg161
I19
sg208
I0
sg389
I0
sg36
I220
sg74
I14
sg347
I6
sg194
I0
sg369
I0
sg232
I0
sg235
I63
sg78
I22
sg247
I0
sg370
I0
sg120
I2
sg121
I0
sg396
I0
sg20
I89
sg285
I17
sg178
I124
sg142
I0
sg257
I0
sg258
I0
sg249
I0
sg371
I4
sg28
I269
sg313
I33
sg357
I0
sg273
I56
sg34
I2
sg359
I0
sg360
I0
sg361
I0
sg362
I0
sg363
I0
sg314
I9
sg125
I0
sg145
I0
sg372
I0
sg196
I25
sg127
I0
sg276
I19
sg226
I6
sg328
I0
sg51
I10
sg16
I32
sg184
I6
sg214
I8
sg62
I40
sg82
I8
sg129
I0
sg130
I0
sg131
I0
sg24
I7
sg147
I0
sg186
I3
sg340
I0
sg341
I0
sg67
I0
sg262
I42
sg342
I0
sg343
I0
sg344
I0
sg98
I0
sg30
I78
sg70
I36
sg188
I10
sg332
I0
sg41
I11
sg75
I30
sg190
I0
sg278
I0
sg353
I2
sg56
I25
sg171
I0
sg336
I0
sg266
I2
sg246
I3
sg239
I0
sg234
I0
sg200
I16
sg64
I105
sg222
I0
sg86
I0
sg390
I0
sg33
I131
sg373
I5
sg38
I247
sg192
I24
sg374
I0
sg44
I2
sg160
I2
sg267
I21
sg398
I0
sg94
I7
sg193
I24
sg17
I170
sg308
I9
sg60
I13
sg399
I2
sg27
I44
sg221
I31
sg118
I0
sg310
I5
sg269
I0
sg397
I2
sg253
I52
sg164
I2
sg103
I3
sg149
I0
sg255
I52
sg256
I1
sS'Cooper'
p405
I0
sg77
I9
sg297
I22
sg177
I54
sg66
I0
sg375
I0
sg8
I0
sg104
I2
sg298
I0
sg187
I6
sg382
I10
sg122
I215
sg155
I26
sg195
I0
sg233
I8
sg61
I38
sg180
I0
sg348
I53
sg210
I49
sg225
I0
sg349
I0
sg106
I0
sg292
I45
sg293
I33
sg259
I0
sg167
I0
sg238
I7
sg274
I44
sg57
I17
sg325
I0
sg364
I2
sg203
I14
sg183
I0
sg157
I0
sg97
I2
sg14
I177
sg18
I197
sg215
I0
sg21
I5
sg331
I0
sg393
I0
sS'Mag Mar Tun Doh Weg'
p406
I0
sg146
I0
sg95
I0
sg400
I2
sg263
I0
sg134
I0
sg248
I0
sg289
I0
sg227
I3
sg228
I11
sg365
I0
sg198
I0
sg383
I0
sg7
I15
sg90
I4
sg58
I23
sg13
I6
sg172
I64
sg101
I0
sg334
I0
sg217
I0
sg112
I0
sg346
I0
sg306
I4
sg84
I7
sg307
I11
sg316
I0
sg317
I0
sg191
I33
sS'Dongo'
p407
I0
sg358
I6
sg206
I16
sg207
I0
sg39
I11
sg114
I0
sg281
I0
sg376
I0
sS'Donnel Hill'
p408
I0
sg268
I28
sg49
I10
sg116
I0
sg22
I118
sg85
I77
sg283
I7
sg304
I58
sg335
I0
sg140
I0
sg270
I43
sg141
I3
sg72
I2
sg162
I17
sg309
I0
sg254
I19
sg43
I322
sS'Smitty'
p409
I0
sg320
I0
sg321
I0
sg163
I15
sg391
I2
sg211
I181
sg105
I45
sg179
I0
sg80
I51
sg241
I103
sg209
I3
sg299
I0
sg323
I0
sg300
I7
sg124
I0
sg52
I11
sg165
I4
sg69
I65
sg166
I2
sg181
I14
sg286
I22
sg351
I6
sg71
I25
sg37
I32
sg384
I10
sg287
I5
sg168
I9
sg4
I40
sg5
I27
sg324
I0
sg272
I23
sg326
I0
sg327
I0
sg352
I0
sg260
I0
sg156
I0
sg128
I0
sg185
I0
sg50
I0
sg109
I0
sg169
I25
sg65
I2
sg25
I19
sg132
I0
sg148
I16
sg150
I2
sg53
I276
sg55
I55
sg6
I143
sg279
I7
sg92
I0
sg159
I0
sg9
I2
sg265
I35
sg19
I290
sg137
I0
sg176
I16
sg377
I0
sg111
I0
sg91
I8
sS'Hobb'
p410
I1
sg15
I5
sg173
I78
sg237
I0
sg138
I2
sg337
I0
sg385
I16
sg219
I0
sg318
I0
sg378
I0
sg295
I20
sg296
I30
sg280
I2
sg139
I0
sg115
I0
sg379
I4
sg83
I58
sg282
I2
sg271
I33
sg117
I2
sg63
I28
sg220
I0
sg68
I13
sg401
I0
sg243
I2
sg88
I0
sg31
I39
sg319
I2
sg201
I94
sg175
I5
sg402
I22
sg284
I0
sg119
I0
sg303
I5
sg223
I0
sg154
I69
sg12
I0
sg224
I0
sg322
I1
sg202
I0
sg96
I54
sg123
I0
sg23
I0
sg244
I0
sg32
I263
sg35
I53
sg40
I53
sg87
I0
sg135
I0
sg126
I0
sg212
I34
sg182
I6
sg108
I0
sg213
I13
sg403
I2
sg59
I0
sg301
I31
sg329
I0
sg81
I4
sg204
I71
sg330
I28
sg338
I17
sg261
I37
sg339
I17
sg354
I0
sg47
I13
sg288
I16
sg197
I8
sg29
I58
sg133
I0
sg99
I55
sg355
I18
sg229
I0
sa(dp411
g2
I277
sg3
I20
sS'Leaf'
p412
I0
sg231
I0
sg152
I0
sS'Kullback'
p413
I0
sg291
I0
sg48
I0
sg11
I165
sg275
I3
sg350
I0
sg26
I2
sg218
I3
sg387
I2
sg174
I69
sg73
I96
sg381
I0
sg113
I0
sg107
I27
sg251
I19
sg153
I2
sg252
I0
sg46
I31
sg93
I16
sg367
I0
sg10
I481
sg96
I58
sg79
I45
sg102
I30
sg42
I28
sg395
I0
sg407
I0
sg144
I0
sg312
I6
sg161
I19
sg208
I0
sg389
I0
sg36
I235
sg74
I14
sg347
I6
sg194
I0
sg176
I16
sg232
I0
sg235
I69
sg78
I22
sg247
I0
sg370
I0
sg120
I2
sg121
I0
sg396
I0
sg20
I94
sg285
I17
sg68
I13
sg142
I0
sg257
I0
sg258
I0
sg249
I0
sg371
I4
sg28
I271
sg313
I33
sg357
I0
sg273
I56
sg34
I2
sg359
I0
sg360
I0
sg361
I0
sg362
I0
sg363
I0
sg314
I9
sg125
I0
sg145
I0
sg372
I0
sg196
I28
sg127
I0
sg276
I19
sg353
I2
sg328
I0
sg51
I10
sg239
I0
sg184
I6
sg214
I8
sg62
I48
sg82
I8
sg129
I0
sg130
I0
sg131
I0
sg24
I7
sg147
I0
sg186
I3
sg66
I0
sg341
I0
sg187
I6
sg382
I14
sg342
I0
sg343
I0
sg344
I0
sg98
I0
sg30
I78
sg70
I36
sg188
I10
sg332
I2
sg41
I11
sg75
I36
sg190
I0
sg278
I0
sS'Ternesio Terys'
p414
I0
sg226
I6
sg56
I25
sg171
I0
sg336
I0
sg266
I6
sg246
I3
sg16
I32
sg234
I0
sg200
I16
sg64
I111
sg222
I0
sg86
I0
sg148
I16
sg33
I131
sg373
I5
sg38
I247
sS'Fennesz'
p415
I10
sg374
I0
sg44
I2
sg160
I2
sg267
I31
sg398
I0
sg94
I7
sg193
I24
sg17
I186
sg308
I9
sg60
I15
sg399
I2
sg27
I44
sg221
I35
sg118
I0
sg310
I5
sg269
I0
sg397
I2
sg253
I53
sg164
I4
sg103
I3
sg149
I0
sg255
I84
sg256
I1
sg405
I0
sS'Zalla'
p416
I2
sg77
I9
sg297
I22
sg177
I54
sg340
I0
sg375
I0
sg8
I0
sg104
I2
sg298
I0
sg67
I0
sg262
I46
sg122
I244
sg155
I26
sg195
I0
sg233
I9
sg61
I38
sg180
I0
sg348
I55
sg210
I49
sg225
I0
sg349
I0
sg106
I0
sg292
I45
sg211
I192
sg259
I0
sg167
I0
sg238
I7
sg274
I46
sg57
I17
sg325
I0
sg364
I2
sg203
I14
sg183
I0
sg157
I0
sg97
I2
sg14
I180
sg337
I0
sg215
I0
sg331
I0
sg393
I0
sg406
I3
sg146
I0
sg95
I0
sg400
I2
sg263
I0
sg134
I0
sg244
I0
sg289
I0
sg227
I3
sg228
I11
sg365
I0
sg198
I0
sg383
I0
sg7
I15
sg90
I4
sg58
I24
sg13
I6
sg172
I70
sg101
I0
sg334
I0
sg217
I0
sg112
I0
sg346
I0
sg49
I10
sg306
I4
sg84
I7
sg307
I11
sg316
I0
sg317
I0
sg191
I38
sg368
I0
sg358
I6
sg206
I16
sg207
I0
sg39
I11
sg114
I0
sg293
I35
sg281
I0
sg376
I0
sg408
I0
sg268
I28
sS'Three-eyed raven'
p417
I0
sg116
I0
sg22
I118
sg85
I77
sg283
I7
sg304
I66
sg335
I0
sg140
I0
sg270
I43
sg141
I3
sg72
I2
sg162
I17
sg309
I0
sg254
I28
sg192
I24
sg43
I361
sg409
I0
sg23
I0
sg320
I0
sg321
I0
sg163
I18
sg391
I2
sg105
I45
sg179
I0
sg80
I57
sg241
I103
sg209
I3
sg299
I0
sg323
I0
sg300
I7
sg124
I0
sg52
I11
sg165
I4
sg69
I67
sg166
I4
sg181
I16
sg286
I22
sg351
I6
sg71
I29
sg37
I37
sg384
I14
sg287
I5
sg168
I9
sg4
I40
sg5
I27
sg324
I0
sg272
I23
sg326
I0
sg327
I0
sg352
I0
sg260
I0
sg156
I0
sg128
I0
sg185
I0
sg50
I0
sg109
I0
sg169
I28
sg65
I2
sg25
I19
sg132
I0
sg390
I0
sg150
I2
sS'Child of the Forest'
p418
I0
sg53
I279
sg55
I55
sg6
I143
sg279
I7
sg92
I0
sg159
I0
sg9
I2
sg265
I47
sg19
I301
sg137
I0
sg369
I0
sg377
I0
sg111
I0
sg91
I8
sg410
I1
sg15
I5
sg173
I78
sg237
I0
sg138
I2
sg18
I212
sg385
I20
sg219
I0
sg318
I0
sg378
I0
sg295
I22
sg296
I33
sg280
I2
sg139
I0
sg115
I0
sg379
I4
sg83
I58
sg282
I2
sg271
I33
sg117
I2
sg63
I28
sg220
I0
sg178
I136
sg401
I0
sg243
I2
sg88
I0
sg31
I39
sg319
I2
sg201
I108
sg175
I5
sg402
I30
sg284
I0
sg119
I0
sg303
I5
sg223
I0
sg154
I74
sg12
I0
sg224
I0
sg322
I1
sg202
I0
sg21
I5
sg123
I0
sg143
I9
sg248
I0
sg32
I278
sg35
I57
sg40
I57
sg87
I0
sg99
I58
sg126
I0
sg212
I34
sg182
I6
sg108
I0
sg213
I13
sg403
I2
sg59
I0
sg301
I31
sg329
I0
sg81
I4
sg204
I73
sg330
I28
sg338
I17
sg261
I43
sg339
I17
sg354
I0
sg47
I13
sg288
I16
sg197
I8
sg29
I61
sg133
I0
sg135
I0
sg355
I18
sg229
I0
sa.