(lp0
(dp1
S'Jeyne'
p2
I0
sS'Luwin'
p3
I4
sS'Khal'
p4
I5
sS'Theon'
p5
I4
sS'Robert'
p6
I17
sS'Rodrik'
p7
I0
sS'Illyrio'
p8
I6
sS'Daenerys'
p9
I10
sS'White'
p10
I3
sS'Pentoshi'
p11
I0
sS'Robb'
p12
I3
sS'Wildling'
p13
I0
sS'Jorah'
p14
I3
sS'Bran'
p15
I14
sS'Waymar'
p16
I2
sS'Qotho'
p17
I0
sS'Sandor'
p18
I0
sS'Joffrey'
p19
I3
sS'Tyrion'
p20
I8
sS'Mago'
p21
I0
sS'Rickon'
p22
I2
sS'Jon'
p23
I18
sS'Maester'
p24
I2
sS'Mordane'
p25
I0
sS'Tommy'
p26
I0
sS'Will'
p27
I7
sS'Jaime'
p28
I7
sS'Arya'
p29
I3
sS'Viserys'
p30
I11
sS'Myrcella'
p31
I0
sS'Jory'
p32
I0
sS'Benjen'
p33
I3
sS'Drogo'
p34
I13
sS'Sansa'
p35
I7
sS'Eddard'
p36
I27
sS'Gared'
p37
I2
sS'Cersei'
p38
I9
sS'Hodor'
p39
I0
sS'Catelyn'
p40
I8
sS'Ros'
p41
I2
sS'Tommen'
p42
I0
sS'Mikken'
p43
I0
sa(dp44
g2
I0
sg3
I8
sg4
I8
sg5
I7
sS'Catspaw'
p45
I0
sg7
I3
sS'Rast'
p46
I0
sg39
I0
sg8
I8
sg9
I17
sg10
I3
sg11
I0
sg12
I10
sS'Jhiqui'
p47
I0
sg13
I0
sg14
I5
sg31
I0
sg16
I2
sg17
I0
sS'Mycah'
p48
I6
sg19
I14
sS'Irri'
p49
I0
sg18
I2
sg21
I0
sg22
I2
sg6
I25
sg23
I32
sg33
I6
sg25
I0
sg20
I19
sg26
I0
sg27
I7
sg28
I9
sS'Doreah'
p50
I4
sg29
I15
sg30
I15
sg15
I27
sg32
I0
sg24
I3
sg34
I19
sg35
I13
sg36
I43
sg37
I2
sg38
I12
sS'Lannister'
p51
I2
sg40
I15
sg41
I2
sg42
I0
sS'Ilyn'
p52
I2
sg43
I2
sa(dp53
g2
I0
sg14
I8
sg3
I8
sg4
I10
sS'Renly'
p54
I1
sg45
I0
sS'Grand'
p55
I1
sS'Royal'
p56
I0
sS"King's"
p57
I0
sg7
I5
sg46
I0
sS'Yoren'
p58
I1
sS'Pypar'
p59
I0
sg9
I23
sg10
I5
sg15
I30
sg11
I0
sg12
I11
sg8
I8
sS'Lancel'
p60
I0
sg47
I0
sg13
I0
sg5
I7
sS'Jeor'
p61
I3
sg31
I0
sg16
I2
sg17
I0
sg48
I6
sg19
I20
sg32
I0
sg49
I2
sg18
I2
sg21
I0
sg22
I2
sg6
I30
sg23
I38
sS'Petyr'
p62
I1
sg24
I5
sS'Barristan'
p63
I2
sS'Pycelle'
p64
I1
sg25
I0
sS'Varys'
p65
I3
sg26
I0
sg27
I7
sS'Alliser'
p66
I2
sS'Syrio'
p67
I2
sg28
I14
sg29
I21
sg30
I18
sS'Rakharo'
p68
I4
sg50
I4
sg42
I0
sg33
I8
sg34
I21
sg41
I2
sS'Old'
p69
I2
sS'Drunk'
p70
I0
sg36
I53
sg35
I16
sg37
I2
sg38
I16
sS'Grenn'
p71
I0
sg51
I7
sg39
I0
sg40
I17
sg20
I25
sS'Goldcloak'
p72
I0
sS'Aemon'
p73
I3
sg52
I2
sg43
I2
sa(dp74
g2
I0
sg35
I24
sg3
I8
sg4
I13
sg54
I1
sS'Willis'
p75
I0
sg59
I0
sS'Hugh'
p76
I3
sg57
I0
sg21
I0
sg7
I7
sg46
I1
sg39
I1
sg58
I3
sg55
I1
sg9
I28
sg10
I5
sg11
I0
sg12
I13
sg60
I0
sg47
I0
sg63
I2
sg33
I8
sg13
I0
sS'Samwell'
p77
I7
sg14
I8
sg61
I3
sg31
I0
sg16
I2
sg17
I0
sg48
I6
sS'Janos'
p78
I0
sg32
I3
sg49
I2
sg66
I4
sg19
I25
sg22
I2
sg45
I0
sg23
I47
sg62
I2
sS'Tobho'
p79
I1
sS'Masha'
p80
I0
sg56
I0
sS'Gendry'
p81
I1
sS'Knight'
p82
I0
sg25
I2
sS'Marillion'
p83
I3
sg34
I25
sS'Bronn'
p84
I2
sg26
I0
sg27
I7
sS'Kurleket'
p85
I0
sg5
I13
sg65
I3
sg67
I2
sg28
I17
sg50
I8
sg29
I21
sg30
I25
sg15
I38
sS'Gregor'
p86
I4
sg24
I5
sg68
I4
sg72
I0
sg8
I8
sg70
I0
sg69
I2
sg42
I0
sg64
I2
sg37
I2
sg38
I16
sg73
I3
sg71
I2
sg51
I11
sg18
I5
sg40
I24
sg20
I39
sg6
I32
sg41
I3
sg36
I56
sg52
I2
sg43
I2
sa(dp87
S'Barra'
p88
I0
sg58
I5
sg10
I5
sg47
I0
sg13
I0
sg16
I2
sg17
I0
sg21
I0
sg20
I54
sg6
I54
sg62
I2
sg60
I2
sg56
I0
sg83
I3
sg65
I14
sg85
I0
sg66
I4
sS'Robin'
p89
I2
sg32
I8
sS'Heward'
p90
I0
sg22
I2
sg36
I90
sg40
I29
sg43
I2
sg79
I1
sg45
I0
sg57
I0
sg46
I1
sg55
I1
sg12
I13
sS'Mord'
p91
I0
sg23
I51
sg61
I3
sg49
I2
sS'Loras'
p92
I14
sg80
I0
sg84
I5
sg68
I4
sg35
I26
sg38
I21
sg18
I11
sg72
I0
sg52
I2
sg75
I0
sg76
I9
sg7
I7
sS'Vardis'
p93
I0
sg11
I0
sS'Wyl'
p94
I0
sg14
I8
sg78
I0
sg33
I8
sg25
I2
sg26
I0
sg50
I8
sg15
I45
sg69
I2
sg37
I2
sg71
I2
sg39
I1
sg2
I0
sg3
I13
sg4
I14
sg54
I13
sg86
I10
sg8
I13
sS'Joss'
p95
I0
sg9
I32
sg77
I7
sS'Mhaegen'
p96
I2
sg48
I6
sg19
I27
sS'Lysa'
p97
I4
sg59
I0
sg63
I8
sg64
I3
sg81
I1
sg82
I1
sg27
I7
sg5
I15
sg67
I2
sg29
I25
sg30
I28
sg31
I0
sg24
I7
sg34
I27
sg41
I5
sg70
I0
sg42
I2
sg51
I26
sg28
I26
sg73
I3
sa(dp98
g88
I0
sg58
I5
sg10
I5
sg47
I0
sg13
I0
sg16
I2
sg17
I1
sg21
I0
sg20
I74
sg75
I0
sg62
I4
sg60
I6
sg56
I0
sg83
I3
sS'Beric'
p99
I2
sg85
I0
sg66
I4
sg89
I3
sg32
I11
sg90
I0
sg36
I106
sg23
I55
sg43
I2
sg79
I1
sg45
I0
sg57
I0
sg46
I1
sg55
I3
sg12
I21
sg91
I7
sg61
I3
sg49
I7
sg92
I14
sg40
I30
sg80
I0
sS'Eon'
p100
I0
sg84
I15
sg28
I32
sg68
I4
sg35
I32
sg38
I27
sg18
I11
sg72
I0
sg59
I0
sg52
I2
sg6
I68
sg76
I9
sg7
I8
sg93
I8
sS'Stiv'
p101
I2
sg11
I0
sg29
I28
sg14
I18
sS'Osha'
p102
I4
sg78
I0
sg24
I9
sg25
I2
sg26
I0
sg50
I8
sg15
I53
sS'Steffon'
p103
I0
sg69
I2
sg37
I2
sg71
I2
sg39
I3
sg2
I0
sg3
I13
sg4
I16
sg54
I18
sg86
I13
sg95
I0
sg8
I15
sg9
I47
sg77
I7
sg96
I2
sg48
I6
sg19
I32
sg97
I15
sg22
I2
sg63
I11
sg64
I7
sg81
I1
sg82
I1
sS'Wallen'
p104
I0
sS'Dothraki'
p105
I4
sg27
I7
sg5
I22
sg65
I14
sg67
I6
sg94
I0
sg30
I42
sg31
I0
sg33
I8
sg34
I41
sg41
I8
sg70
I1
sg42
I2
sg51
I36
sg73
I3
sa(dp106
g88
I0
sg58
I5
sg10
I7
sg92
I16
sg47
I0
sg13
I0
sS'Joby'
p107
I0
sg16
I2
sg17
I1
sg21
I0
sg20
I77
sS'Balian'
p108
I0
sg62
I4
sg60
I8
sg56
I0
sg83
I3
sg99
I2
sg85
I0
sg66
I6
sg89
I3
sg32
I11
sS'Jaremy'
p109
I0
sg90
I0
sS'Tywin'
p110
I5
sg36
I132
sg40
I33
sS'Rancer'
p111
I0
sg43
I2
sS'Little'
p112
I0
sg63
I13
sg45
I0
sg57
I0
sg46
I1
sg59
I2
sg12
I21
sg91
I7
sS'Vorkoy'
p113
I0
sg81
I1
sg61
I5
sg49
I7
sS'Wineseller'
p114
I0
sg23
I67
sg104
I0
sg80
I0
sg100
I0
sg84
I15
sg68
I6
sg8
I15
sg35
I32
sg38
I38
sS'Othell'
p115
I0
sg18
I11
sg6
I84
sg72
I0
sg52
I2
sg75
I0
sg76
I9
sS'Niko'
p116
I0
sg7
I8
sg93
I8
sg101
I2
sg11
I0
sS'Armeca'
p117
I2
sg94
I0
sg41
I11
sS'Toad'
p118
I0
sg14
I25
sg102
I8
sg78
I2
sg33
I11
sS"Night's"
p119
I0
sg25
I2
sS'Echiel'
p120
I0
sg26
I0
sS'Halder'
p121
I0
sg50
I8
sg15
I53
sg103
I0
sg69
I4
sg37
I2
sg71
I2
sg39
I3
sS'Gordo'
p122
I0
sg2
I0
sg3
I16
sg4
I17
sg54
I25
sS'Allo'
p123
I0
sg86
I13
sg55
I3
sg95
I0
sS'Matthar'
p124
I0
sg9
I59
sS'Luke'
p125
I0
sg77
I11
sg96
I2
sg48
I6
sg19
I42
sg97
I15
sg22
I2
sg79
I1
sg64
I7
sS'Escan'
p126
I0
sg82
I1
sS'Varly'
p127
I0
sg105
I6
sS'Tomard'
p128
I0
sg27
I7
sg5
I26
sg65
I20
sg67
I6
sg29
I28
sg30
I42
sg31
I0
sg24
I11
sg34
I47
sS'Mink'
p129
I0
sS'Nelugo'
p130
I0
sg70
I1
sg42
I2
sS'Dareon'
p131
I0
sg51
I46
sg28
I38
sg73
I5
sa(dp132
g88
I0
sg58
I5
sg10
I9
sS'Aron'
p133
I0
sg47
I0
sS'Othor'
p134
I0
sg13
I0
sg107
I0
sg16
I2
sg17
I1
sg21
I3
sg20
I82
sg108
I0
sg62
I4
sS'Vayon'
p135
I0
sS'Kevan'
p136
I2
sg76
I9
sg83
I3
sg99
I2
sg85
I0
sg66
I8
sS'Shagga'
p137
I2
sg89
I3
sg32
I11
sg109
I0
sS'Maege'
p138
I0
sg90
I0
sg110
I10
sg36
I137
sg92
I16
sg111
I0
sg43
I2
sg112
I0
sg79
I1
sg45
I0
sg57
I0
sg46
I1
sg59
I2
sg12
I31
sg91
I7
sS'Chella'
p139
I0
sg113
I0
sg126
I0
sg61
I7
sg49
I7
sg114
I0
sg23
I74
sg40
I37
sS'Mirri'
p140
I2
sg127
I0
sg80
I0
sg65
I22
sg100
I0
sg84
I18
sg28
I42
sg68
I6
sg35
I41
sg38
I41
sg115
I0
sg18
I14
sg6
I85
sg41
I11
sg52
I2
sS'Jafer'
p141
I0
sS'Meryn'
p142
I3
sg75
I0
sg56
I0
sg116
I0
sS'Greatjon'
p143
I1
sg7
I10
sg93
I8
sg101
I2
sg11
I0
sg117
I2
sg29
I38
sg118
I0
sg14
I26
sg102
I10
sg78
I4
sg24
I15
sg119
I0
sg25
I5
sg120
I0
sg26
I0
sg129
I0
sg121
I0
sg50
I8
sg15
I57
sg103
I0
sg69
I7
sg37
I2
sg71
I2
sg39
I5
sS'Galbart'
p144
I0
sg122
I0
sg2
I0
sg3
I18
sg4
I22
sg54
I25
sg123
I0
sg86
I13
sg55
I4
sg8
I15
sg124
I0
sg9
I64
sg60
I8
sg125
I0
sg77
I13
sg96
I2
sg48
I6
sg19
I49
sg97
I18
sg22
I3
sg63
I15
sg64
I9
sg81
I1
sg82
I1
sg104
I0
sg105
I11
sg128
I0
sg27
I7
sg5
I26
sS'Timett'
p145
I0
sg67
I12
sg94
I0
sg30
I42
sg31
I0
sg33
I14
sS'Gyles'
p146
I0
sg34
I57
sg72
I0
sg130
I0
sg70
I1
sg42
I2
sg131
I0
sg51
I59
sg95
I0
sg73
I7
sa(dp147
g88
I0
sg58
I10
sg10
I9
sg133
I0
sg47
I0
sg134
I0
sg13
I0
sg107
I0
sg16
I2
sg17
I6
sg21
I5
sg20
I102
sg108
I0
sg62
I4
sg49
I7
sg136
I2
sg76
I9
sg83
I3
sg99
I2
sg85
I0
sg66
I10
sg137
I2
sg89
I3
sg32
I11
sg109
I0
sg138
I0
sg90
I0
sg110
I16
sg36
I149
sS'Walder'
p148
I4
sS'Stevron'
p149
I0
sg40
I42
sg111
I0
sg43
I2
sg112
I0
sg63
I15
sg45
I0
sS'Shae'
p150
I7
sg57
I0
sg46
I1
sg59
I2
sg12
I51
sg91
I7
sg23
I87
sg139
I0
sg113
I0
sg81
I1
sg61
I11
sg135
I0
sg114
I0
sg92
I16
sg140
I5
sg104
I0
sg80
I0
sg100
I0
sg84
I27
sg68
I6
sg35
I48
sg38
I44
sg115
I0
sg18
I14
sg6
I89
sg41
I11
sS'Arwaya'
p151
I0
sg52
I7
sg145
I0
sg141
I0
sg142
I3
sg75
I0
sg56
I0
sg116
I0
sg143
I1
sg7
I12
sg93
I8
sg101
I2
sg11
I0
sg117
I2
sg94
I0
sg118
I0
sg14
I34
sg102
I10
sg78
I4
sg33
I16
sS'Ryger'
p152
I0
sg119
I0
sg25
I5
sg120
I0
sg26
I0
sg121
I0
sg50
I8
sg15
I57
sg103
I0
sg69
I7
sg72
I0
sg37
I2
sg71
I2
sg39
I5
sg144
I0
sg122
I0
sg2
I0
sg3
I18
sg4
I23
sg54
I25
sg123
I0
sg86
I13
sg55
I5
sg8
I15
sg124
I0
sg9
I75
sg60
I8
sg125
I0
sg77
I15
sg96
I2
sg48
I6
sg19
I54
sg97
I18
sg22
I3
sS'Joyeuse'
p153
I0
sg79
I1
sg64
I11
sg126
I0
sg82
I1
sg127
I0
sg105
I14
sg128
I0
sg27
I7
sg5
I29
sg65
I28
sg67
I12
sg29
I49
sg30
I42
sg31
I0
sg24
I19
sg146
I0
sg34
I68
sg129
I0
sg130
I0
sg70
I1
sg42
I2
sg131
I0
sg51
I62
sg28
I52
sg95
I0
sg73
I15
sa(dp154
g88
I0
sg58
I13
sg10
I11
sg133
I0
sg47
I0
sg134
I0
sg13
I0
sg107
I0
sg15
I64
sg16
I2
sg17
I6
sg21
I5
sg20
I108
sg108
I0
sg62
I4
sg135
I0
sg136
I2
sg56
I0
sg83
I7
sg99
I2
sg85
I0
sg66
I10
sg137
I2
sg89
I3
sg32
I11
sg109
I0
sg138
I0
sg90
I0
sS'Jaqen'
p155
I0
sg36
I155
sg148
I4
sg110
I24
sg149
I0
sg92
I16
sg111
I0
sg43
I2
sg112
I0
sS'Rorge'
p156
I0
sg79
I2
sg45
I0
sg150
I10
sg57
I0
sg46
I1
sg59
I4
sg12
I61
sg91
I7
sg139
I0
sg113
I0
sg126
I0
sg61
I13
sS'Rickard'
p157
I0
sg49
I7
sg114
I0
sg23
I96
sg40
I47
sg140
I9
sg127
I0
sg80
I0
sg65
I30
sg100
I0
sg84
I27
sg28
I59
sg68
I8
sg35
I55
sg38
I55
sg115
I0
sg18
I18
sg6
I95
sg41
I14
sg151
I0
sg52
I10
sg14
I39
sg142
I5
sg75
I0
sg76
I9
sg116
I0
sg143
I3
sg7
I13
sg93
I8
sg101
I2
sg11
I0
sS'Drogon'
p158
I0
sg29
I53
sg118
I0
sg141
I0
sg102
I14
sg78
I4
sS'Jonos'
p159
I0
sg24
I21
sg152
I0
sg119
I0
sg25
I5
sg120
I0
sg26
I0
sg129
I0
sg121
I0
sg50
I8
sS'Biter'
p160
I0
sg103
I0
sS'Viserion'
p161
I0
sg69
I8
sS'Lommy'
p162
I1
sg37
I2
sg71
I4
sg39
I5
sg144
I0
sg122
I0
sg2
I0
sg3
I20
sg4
I23
sg54
I29
sg123
I0
sg86
I13
sg55
I6
sS'Hot'
p163
I1
sg8
I15
sg124
I0
sg9
I86
sg60
I12
sg95
I0
sg125
I0
sg77
I17
sg96
I2
sg48
I6
sg19
I65
sg97
I18
sg22
I6
sg153
I0
sg63
I15
sg64
I15
sg81
I2
sg82
I1
sg104
I0
sg105
I15
sg128
I0
sg72
I0
sg27
I7
sg5
I29
sg145
I0
sg67
I12
sg94
I0
sg30
I42
sg31
I0
sS'Addam'
p164
I0
sg33
I18
sg146
I0
sg34
I71
sS'Rhaegal'
p165
I0
sg130
I0
sg70
I1
sg42
I2
sg131
I0
sg51
I70
sg117
I2
sg73
I15
sa(dp166
g88
I2
sg58
I15
sg10
I11
sg133
I0
sg47
I0
sg134
I0
sg13
I0
sg107
I0
sg160
I0
sg16
I2
sg17
I6
sg21
I5
sS'Matthos'
p167
I0
sg108
I0
sg62
I8
sS'Craster'
p168
I7
sg135
I0
sg136
I2
sg76
I9
sg83
I7
sg99
I2
sg85
I0
sg66
I10
sg137
I2
sg89
I3
sg32
I11
sg109
I0
sg143
I3
sS'Selyse'
p169
I0
sg138
I0
sg90
I0
sg155
I0
sg36
I155
sS'Melisandre'
p170
I6
sg148
I4
sg110
I29
sg149
I0
sg23
I102
sg111
I0
sg43
I2
sg112
I0
sg156
I0
sg63
I15
sg45
I0
sg93
I8
sg57
I0
sg46
I1
sg59
I4
sg12
I74
sg91
I7
sg139
I0
sg113
I0
sg81
I6
sg61
I17
sg157
I0
sg49
I7
sg114
I0
sg92
I16
sg40
I49
sg140
I9
sg104
I0
sg80
I0
sg100
I0
sg84
I27
sg75
I0
sg68
I8
sg35
I59
sg38
I62
sg115
I0
sg18
I20
sg41
I16
sg151
I0
sg52
I10
sg145
I0
sg141
I0
sg142
I5
sg6
I99
sg67
I12
sg56
I0
sg116
I0
sS'Gilly'
p171
I0
sg7
I13
sg150
I12
sg101
I2
sg11
I0
sg158
I0
sg94
I0
sg118
I0
sg14
I40
sg102
I16
sg78
I6
sS'Portan'
p172
I0
sg159
I0
sg33
I20
sS'Davos'
p173
I5
sg152
I0
sg119
I0
sS'Aggo'
p174
I0
sg20
I114
sg120
I0
sS'Eddison'
p175
I0
sg26
I0
sS'Dontos'
p176
I5
sg121
I0
sg50
I8
sg15
I68
sg103
I0
sg165
I0
sg161
I0
sg69
I8
sg162
I1
sg37
I2
sg71
I4
sg39
I7
sg144
I0
sg122
I0
sS'Stannis'
p177
I8
sg2
I0
sg3
I22
sg4
I25
sg54
I34
sg123
I0
sg86
I13
sg55
I6
sg117
I2
sg163
I1
sS'Cressen'
p178
I6
sg8
I15
sg124
I0
sg9
I89
sg60
I12
sS'Alton'
p179
I2
sg125
I0
sg77
I17
sg96
I2
sg48
I6
sg19
I77
sS'Kovarro'
p180
I0
sS'Eglantine'
p181
I0
sg22
I6
sg153
I0
sg79
I4
sg25
I5
sg64
I15
sg126
I0
sg82
I1
sS'Lothor'
p182
I0
sg127
I0
sg105
I15
sg128
I0
sg72
I0
sg27
I7
sg5
I31
sg97
I18
sg65
I30
sS'Daisy'
p183
I0
sg29
I58
sg30
I42
sg31
I1
sg164
I0
sg24
I23
sg146
I0
sg34
I73
sg129
I0
sg130
I0
sg70
I1
sg42
I3
sg131
I0
sg51
I80
sg28
I70
sg95
I0
sg73
I15
sa(dp184
S'Balon'
p185
I5
sg88
I4
sg58
I19
sg10
I13
sg133
I0
sg47
I0
sg134
I0
sg13
I0
sg107
I0
sg15
I68
sg16
I2
sg17
I6
sg21
I5
sg167
I2
sg108
I0
sg62
I10
sS'Yara'
p186
I2
sg168
I13
sg49
I9
sg136
I2
sg56
I1
sg83
I7
sg99
I2
sg85
I0
sg66
I10
sS'Gerard'
p187
I0
sg137
I2
sg89
I3
sg32
I11
sg109
I0
sg171
I2
sg169
I0
sg138
I0
sg90
I0
sg155
I2
sg36
I157
sg170
I8
sg148
I4
sg110
I29
sg149
I0
sg92
I16
sg111
I0
sg43
I2
sg112
I0
sg156
I0
sg79
I4
sg45
I0
sS'Tom'
p188
I0
sg57
I0
sg46
I1
sS'Andy'
p189
I0
sg59
I4
sg12
I78
sg91
I7
sg139
I0
sg113
I0
sg126
I0
sg61
I17
sg157
I0
sg39
I7
sg135
I0
sg114
I0
sg23
I108
sg40
I49
sg140
I9
sg127
I0
sg80
I0
sg65
I33
sg100
I0
sg84
I29
sg28
I72
sg68
I13
sg35
I59
sg38
I66
sg115
I0
sg18
I20
sg6
I99
sg41
I18
sg151
I0
sg52
I10
sg14
I42
sg142
I5
sg75
I0
sg183
I0
sg76
I9
sg116
I0
sg143
I3
sg7
I13
sg93
I8
sg101
I2
sg11
I0
sg158
I0
sg29
I63
sg118
I0
sg141
I0
sg102
I16
sg78
I10
sg172
I0
sg159
I0
sg24
I25
sg173
I8
sg152
I0
sg119
I0
sg174
I0
sg20
I121
sg120
I0
sg175
I0
sg26
I0
sg176
I5
sg129
I0
sg121
I0
sg50
I8
sg160
I0
sg103
I0
sg161
I0
sg69
I8
sg162
I1
sg37
I2
sg150
I14
sg71
I4
sS'Salladhor'
p190
I2
sg144
I0
sg122
I0
sg177
I12
sg2
I0
sg3
I22
sg4
I25
sg54
I34
sg123
I0
sg86
I13
sg55
I8
sg163
I1
sS"Captain's"
p191
I0
sg178
I6
sg8
I15
sg124
I0
sg9
I93
sg60
I12
sS'Podrick'
p192
I0
sg95
I0
sg179
I4
sg125
I0
sg77
I19
sg96
I2
sg48
I6
sg19
I78
sg180
I0
sg181
I0
sg22
I6
sg153
I0
sg63
I15
sg25
I5
sg64
I17
sg81
I9
sg82
I1
sg182
I0
sg104
I0
sg105
I17
sg128
I0
sg72
I0
sg27
I7
sg5
I35
sg97
I18
sg145
I0
sg67
I12
sg94
I0
sg30
I42
sg31
I1
sg164
I0
sg33
I20
sg146
I0
sg34
I73
sg165
I0
sg130
I0
sg70
I1
sg42
I3
sg131
I0
sg51
I88
sg117
I2
sg73
I15
sa(dp193
g185
I11
sg88
I4
sg58
I23
sg10
I15
sg133
I0
sg47
I0
sg134
I0
sg13
I0
sg107
I0
sg160
I0
sg16
I2
sg17
I6
sg21
I5
sg167
I2
sS'Margaery'
p194
I4
sg108
I0
sg62
I12
sg186
I4
sg168
I19
sg135
I0
sg136
I2
sg76
I9
sS'Polliver'
p195
I4
sg83
I7
sg99
I2
sg85
I0
sg66
I10
sS'Colen'
p196
I0
sg187
I0
sg137
I2
sg89
I3
sg32
I11
sg109
I0
sg143
I3
sg169
I0
sg138
I0
sg90
I0
sg110
I29
sg36
I157
sg170
I8
sg148
I4
sg155
I4
sg149
I0
sg23
I117
sg111
I0
sg43
I2
sg112
I0
sg156
I0
sg63
I15
sg45
I0
sg93
I8
sg57
I0
sg46
I1
sg189
I0
sg59
I4
sg12
I81
sg91
I7
sg139
I0
sg113
I0
sg81
I15
sg61
I21
sg157
I0
sg190
I2
sg49
I9
sg114
I0
sg92
I20
sg40
I54
sg140
I9
sg104
I0
sg80
I0
sg100
I0
sg84
I31
sg75
I0
sg68
I13
sg35
I64
sg38
I71
sg118
I0
sg115
I0
sg18
I20
sg41
I18
sg151
I0
sg52
I10
sg145
I0
sg141
I0
sg142
I5
sg6
I99
sg67
I12
sg56
I2
sg116
I0
sg171
I4
sg7
I13
sg188
I0
sg101
I2
sg11
I0
sg158
I0
sg94
I0
sS'Brienne'
p197
I2
sg14
I42
sg102
I16
sg78
I10
sg172
I0
sg159
I0
sg33
I20
sg173
I8
sg152
I0
sg119
I0
sg174
I0
sg20
I127
sg120
I0
sg175
I0
sg26
I0
sg176
I5
sg121
I0
sg50
I8
sg15
I70
sg103
I0
sg165
I0
sg161
I0
sg69
I8
sg162
I5
sg37
I2
sg150
I17
sg71
I4
sg39
I9
sg144
I0
sg122
I0
sg177
I12
sg2
I0
sg3
I24
sg4
I25
sg54
I43
sg123
I0
sg86
I13
sg55
I8
sg117
I2
sg163
I3
sg191
I0
sg178
I6
sg8
I15
sg124
I0
sg9
I93
sg60
I12
sg192
I0
sg179
I4
sg125
I0
sg77
I21
sS'Amory'
p198
I4
sg96
I2
sg48
I6
sg19
I78
sg180
I0
sg181
I0
sg22
I6
sg153
I0
sg79
I4
sg25
I5
sg64
I21
sg126
I0
sg82
I1
sg182
I0
sg127
I0
sg105
I17
sg128
I0
sg72
I0
sg27
I7
sg5
I43
sg97
I18
sg65
I35
sg183
I0
sg29
I69
sg30
I42
sg31
I4
sg164
I0
sg24
I27
sg146
I0
sg34
I73
sg129
I0
sg130
I0
sg70
I1
sg42
I3
sg131
I0
sg51
I95
sg28
I72
sg95
I0
sg73
I15
sa(dp199
g121
I0
sg185
I11
sg88
I4
sg58
I23
sg10
I15
sg133
I0
sg47
I0
sg134
I0
sg13
I0
sg107
I0
sg15
I70
sS'Xaro'
p200
I2
sg16
I2
sg17
I6
sg21
I5
sg167
I2
sg194
I8
sg108
I0
sS'Spice'
p201
I2
sg186
I4
sg168
I19
sg49
I9
sg136
I2
sg56
I2
sg195
I4
sg83
I7
sg99
I2
sg85
I0
sg66
I10
sg196
I0
sg187
I0
sg137
I2
sg89
I3
sg32
I11
sg197
I4
sg109
I0
sS'Copper'
p202
I0
sg169
I0
sg138
I0
sg90
I0
sg110
I38
sg36
I159
sg170
I15
sg148
I4
sg155
I4
sg149
I0
sg23
I117
sg111
I0
sg43
I2
sg112
I0
sg156
I0
sg79
I4
sg45
I0
sg188
I0
sg57
I0
sg46
I1
sg189
I0
sg59
I4
sg12
I94
sg91
I7
sg139
I0
sg113
I0
sg126
I0
sg61
I21
sg157
I0
sg39
I9
sg135
I0
sg114
I0
sg92
I22
sS'Weasel'
p203
I0
sg140
I9
sg127
I0
sg80
I0
sg65
I35
sg100
I0
sg84
I33
sg28
I74
sg68
I13
sg35
I77
sg38
I83
sg40
I63
sg115
I0
sg18
I22
sg6
I102
sg41
I22
sg151
I0
sg52
I10
sg14
I45
sg142
I8
sg75
I0
sg183
I3
sg76
I9
sg116
I0
sg143
I3
sg7
I13
sg93
I8
sg101
I2
sg11
I0
sg158
I0
sg29
I77
sg118
I0
sg141
I0
sg102
I16
sg78
I10
sg164
I0
sg172
I0
sS'Roose'
p204
I2
sg171
I4
sg24
I29
sg173
I13
sg152
I0
sg119
I0
sg174
I0
sg20
I144
sg120
I0
sg175
I0
sg26
I0
sg176
I5
sg129
I0
sS'Talisa'
p205
I2
sg50
I8
sg160
I0
sg103
I0
sg161
I0
sg69
I8
sg162
I5
sg37
I2
sg150
I17
sg71
I4
sg190
I2
sg159
I0
sg144
I0
sg122
I0
sg62
I15
sg177
I29
sg2
I0
sg3
I24
sg4
I25
sg54
I63
sg123
I0
sg86
I16
sg55
I10
sg163
I5
sg191
I0
sg178
I6
sg8
I15
sg124
I0
sg9
I99
sg60
I27
sg192
I0
sg95
I0
sg179
I4
sg125
I0
sg77
I21
sg198
I6
sg96
I2
sg48
I6
sg19
I98
sg180
I2
sg181
I0
sS'Silk'
p206
I0
sg22
I6
sg153
I0
sg63
I15
sg25
I5
sg64
I24
sg81
I20
sg82
I1
sg182
I0
sg104
I0
sg105
I17
sg128
I0
sg72
I0
sg27
I7
sg5
I43
sg97
I18
sg145
I0
sg67
I12
sS'The'
p207
I20
sg94
I0
sg30
I42
sg31
I4
sS'Pyat'
p208
I0
sg33
I20
sg146
I0
sg34
I73
sg165
I0
sg130
I0
sg70
I1
sg42
I3
sg131
I0
sg51
I118
sg117
I2
sS'Thirteen'
p209
I5
sg73
I15
sa(dp210
g205
I2
sg185
I11
sg88
I4
sg58
I23
sg10
I15
sg133
I0
sg47
I0
sg134
I0
sg13
I0
sg107
I0
sg15
I72
sg200
I5
sg16
I2
sg17
I6
sg21
I5
sg167
I2
sS'Robar'
p211
I0
sg194
I8
sS'Qhorin'
p212
I4
sg108
I0
sg201
I2
sg186
I4
sg168
I19
sg135
I0
sg136
I2
sg76
I9
sg195
I4
sg83
I7
sg99
I2
sg85
I0
sg66
I10
sg196
I0
sg187
I0
sg137
I2
sg89
I3
sg32
I11
sg109
I0
sg202
I0
sg169
I0
sS'Lorren'
p213
I0
sS'Drennan'
p214
I0
sg138
I0
sg90
I0
sg155
I8
sg36
I159
sg170
I19
sg148
I4
sg110
I41
sg149
I0
sg92
I22
sg111
I0
sg43
I2
sg112
I0
sg156
I0
sg63
I15
sg45
I0
sg93
I8
sg57
I0
sg46
I1
sg189
I0
sg59
I4
sg12
I98
sg91
I7
sg139
I0
sg113
I0
sg81
I20
sg61
I24
sg157
I0
sg190
I2
sg49
I9
sg82
I1
sg114
I0
sg23
I119
sg203
I0
sg140
I9
sg104
I0
sg80
I0
sg100
I0
sg84
I35
sg75
I0
sg68
I13
sg35
I77
sg38
I87
sg40
I66
sg115
I0
sg18
I22
sg41
I22
sg151
I0
sg52
I10
sg118
I0
sg26
I0
sg141
I0
sg142
I8
sg177
I34
sg6
I102
sg67
I12
sg56
I2
sg116
I0
sg143
I3
sg7
I16
sg160
I0
sg188
I0
sg101
I2
sg11
I0
sg158
I1
sg94
I0
sg197
I8
sg102
I18
sg14
I48
sS'Stonesnake'
p215
I0
sg78
I10
sg208
I2
sg172
I0
sg51
I127
sg204
I2
sg171
I4
sg33
I20
sg173
I16
sg152
I0
sg119
I0
sg174
I0
sg20
I152
sg120
I0
sg175
I0
sS'Borba'
p216
I0
sg176
I5
sg121
I0
sg50
I8
sS'Malakho'
p217
I0
sg103
I0
sg165
I0
sg161
I0
sg69
I8
sg162
I5
sg37
I2
sg150
I17
sg71
I4
sg39
I9
sg159
I0
sg144
I0
sg122
I0
sg62
I17
sg42
I3
sS'Emmon'
p218
I0
sg2
I0
sg3
I24
sg4
I25
sg54
I68
sg123
I0
sg86
I18
sg55
I10
sg117
I2
sg163
I5
sg191
I0
sg178
I6
sg8
I15
sg124
I0
sg9
I103
sg60
I29
sg192
I0
sg179
I4
sg125
I0
sg77
I21
sg198
I6
sS'Quaithe'
p219
I2
sg145
I0
sg96
I2
sg48
I6
sg19
I101
sg180
I2
sg181
I0
sg206
I0
sg22
I6
sg153
I0
sg79
I4
sg25
I5
sg64
I24
sg126
I0
sS'Reginald'
p220
I0
sg182
I0
sg127
I0
sg105
I17
sg128
I0
sg72
I0
sg27
I7
sg5
I46
sg97
I18
sg65
I35
sg183
I3
sg207
I23
sg29
I80
sg30
I42
sg31
I4
sg164
I0
sg24
I29
sg146
I0
sg34
I73
sg129
I0
sg130
I0
sg70
I1
sS'Hallyne'
p221
I3
sg131
I0
sS'Dagmer'
p222
I2
sg28
I74
sg95
I0
sg209
I5
sS'Harker'
p223
I0
sg73
I15
sa(dp224
g121
I0
sg185
I11
sg220
I0
sS'Farlen'
p225
I0
sg88
I4
sg58
I23
sg10
I15
sg133
I0
sg47
I0
sg134
I0
sg13
I0
sg107
I0
sg160
I0
sg200
I6
sg16
I2
sg17
I6
sg21
I5
sg167
I2
sg211
I0
sg194
I8
sg212
I9
sg108
I0
sg201
I3
sg186
I4
sg168
I19
sg49
I10
sg136
I2
sg56
I2
sg195
I4
sg83
I7
sg99
I2
sg85
I0
sg66
I10
sg196
I0
sg187
I0
sg137
I2
sg143
I3
sg89
I3
sg32
I11
sg109
I0
sg202
I0
sg169
I0
sg213
I0
sg214
I0
sg138
I0
sg90
I0
sg155
I11
sg36
I159
sg170
I19
sg148
I4
sg110
I48
sg149
I0
sg203
I0
sg111
I0
sg43
I2
sg112
I0
sg156
I0
sg79
I4
sg45
I0
sg188
I0
sg57
I0
sg46
I1
sg189
I0
sg59
I4
sg12
I106
sg91
I7
sg23
I125
sg139
I0
sg113
I0
sg126
I0
sg61
I24
sg157
I0
sg39
I11
sg135
I0
sg114
I0
sg92
I22
sg40
I68
sg140
I9
sg127
I0
sg80
I0
sg65
I35
sg100
I0
sg84
I35
sg28
I76
sg68
I13
sg35
I84
sg38
I92
sg197
I10
sg115
I0
sg18
I25
sg215
I0
sg6
I102
sg41
I22
sg151
I0
sg52
I10
sg14
I48
sg142
I8
sg218
I0
sg75
I0
sg183
I3
sg76
I9
sg116
I0
sS'Quent'
p226
I0
sg7
I19
sg93
I8
sg101
I2
sg11
I0
sg158
I1
sg29
I87
sg118
I0
sg141
I0
sg102
I21
sg78
I11
sg164
I0
sg172
I0
sg204
I6
sg171
I4
sg24
I31
sg173
I16
sg152
I0
sg119
I0
sg174
I0
sg20
I162
sg120
I0
sg175
I0
sg26
I0
sg176
I5
sg129
I0
sg205
I5
sg50
I8
sg15
I77
sg103
I0
sg161
I0
sg69
I8
sg162
I5
sg37
I2
sg150
I17
sg71
I4
sg190
I2
sg159
I0
sg144
I0
sS'Palla'
p227
I0
sg122
I0
sg62
I19
sg221
I3
sg177
I37
sg2
I0
sS'Ygritte'
p228
I6
sg3
I27
sg4
I25
sg54
I70
sg123
I0
sg86
I18
sg55
I10
sg163
I5
sg191
I0
sg178
I6
sg8
I15
sg124
I0
sg9
I105
sg60
I29
sg216
I0
sg192
I0
sg95
I0
sg179
I4
sg125
I0
sg77
I21
sg198
I12
sg219
I2
sg96
I2
sg48
I6
sg19
I111
sg180
I2
sg181
I0
sg206
I0
sg22
I8
sg153
I0
sg63
I15
sg25
I5
sg64
I24
sg81
I20
sg82
I1
sg182
I0
sg104
I0
sg105
I17
sg128
I0
sg72
I0
sg27
I7
sg5
I59
sg97
I18
sg145
I0
sg67
I12
sg207
I31
sg94
I0
sg30
I42
sg31
I7
sg208
I2
sg33
I20
sg146
I0
sg34
I73
sg165
I0
sg217
I0
sg130
I0
sg70
I1
sg42
I5
sg131
I0
sS'High'
p229
I3
sg222
I4
sg51
I133
sg117
I2
sg209
I5
sg223
I0
sg73
I15
sa(dp230
g205
I7
sg185
I11
sg225
I0
sg88
I4
sg219
I6
sg58
I23
sg10
I15
sg133
I0
sg47
I0
sg134
I0
sg13
I0
sg107
I0
sg15
I80
sg200
I11
sg16
I2
sg17
I6
sg21
I5
sg167
I2
sg211
I0
sg194
I8
sg212
I11
sg108
I0
sg201
I3
sg186
I4
sg168
I19
sg135
I0
sg136
I2
sg76
I9
sg195
I4
sg83
I7
sg99
I2
sS'Billy'
p231
I0
sg66
I10
sg196
I0
sg187
I0
sg137
I2
sg89
I3
sg32
I11
sg109
I0
sg202
I0
sg169
I0
sg213
I3
sg214
I0
sg138
I0
sg90
I0
sg155
I13
sg36
I161
sg170
I19
sg148
I4
sg110
I53
sg149
I0
sg23
I130
sg111
I0
sg43
I2
sg112
I0
sg156
I0
sg63
I15
sg81
I20
sg45
I0
sg93
I8
sg57
I0
sg46
I1
sg189
I0
sg59
I4
sg12
I112
sg91
I7
sg139
I0
sg113
I0
sS'Torrhen'
p232
I6
sg61
I24
sg157
I3
sg190
I2
sg49
I10
sg82
I1
sg114
I0
sg92
I22
sg203
I0
sg140
I9
sg104
I0
sg80
I0
sg100
I0
sg84
I35
sg75
I0
sg68
I13
sg35
I97
sg38
I101
sg40
I73
sg115
I0
sg18
I30
sg41
I22
sg151
I0
sg52
I10
sg118
I0
sg141
I0
sg142
I8
sg177
I37
sg6
I104
sg67
I12
sg56
I2
sg116
I0
sg143
I3
sg7
I19
sg188
I0
sg101
I2
sg11
I0
sg158
I1
sg94
I0
sg197
I11
sg102
I24
sg14
I54
sg215
I0
sg78
I11
sg208
I7
sg172
I0
sg51
I145
sg204
I6
sg171
I4
sg33
I20
sg173
I16
sg152
I0
sg119
I0
sg174
I0
sg20
I164
sg120
I0
sg175
I0
sg26
I0
sg176
I5
sg121
I0
sg50
I8
sg160
I0
sg103
I0
sg165
I0
sg161
I0
sg69
I8
sg162
I5
sg70
I1
sg37
I2
sg150
I20
sg71
I4
sg39
I13
sg159
I0
sg144
I0
sg227
I0
sg122
I0
sg62
I19
sg42
I7
sg218
I0
sg2
I0
sg228
I9
sg3
I29
sg4
I25
sg54
I70
sg123
I0
sg86
I22
sg55
I10
sg117
I2
sg163
I5
sg191
I0
sg178
I6
sg8
I15
sg124
I0
sg9
I111
sg60
I29
sg216
I0
sg192
I0
sg179
I10
sg125
I0
sg77
I21
sg198
I14
sg226
I0
sg145
I0
sg96
I2
sg48
I6
sg19
I120
sS'Jack'
p233
I0
sg180
I4
sg181
I0
sg206
I0
sg22
I11
sg153
I0
sg79
I4
sg25
I5
sg64
I24
sg126
I0
sg220
I0
sg182
I0
sg127
I0
sg105
I17
sg128
I0
sg72
I0
sg27
I7
sg5
I68
sg97
I18
sg65
I35
sg183
I3
sg207
I38
sg29
I91
sg30
I42
sg31
I9
sg164
I0
sg24
I33
sg146
I0
sg34
I73
sg129
I0
sg217
I0
sg130
I0
sg85
I0
sg221
I3
sg131
I0
sg229
I3
sg222
I5
sg28
I90
sg95
I0
sg209
I8
sg223
I0
sg73
I15
sa(dp234
g121
I0
sg185
I11
sg220
I0
sg225
I0
sg88
I4
sg58
I23
sg10
I15
sg133
I0
sg92
I22
sg47
I0
sg134
I0
sg13
I0
sg107
I0
sg160
I0
sg200
I11
sg16
I2
sg17
I6
sg21
I5
sg167
I2
sg211
I0
sg194
I8
sg212
I14
sg108
I0
sg201
I3
sg186
I6
sg168
I19
sg49
I10
sg136
I2
sg56
I2
sg195
I4
sg83
I7
sg99
I2
sg231
I0
sg66
I10
sg196
I0
sg187
I0
sg137
I2
sg89
I3
sg32
I11
sg109
I0
sg202
I0
sg169
I0
sg213
I3
sg214
I0
sg138
I0
sg90
I0
sg155
I17
sg36
I161
sg170
I19
sg148
I4
sg110
I56
sg149
I0
sg203
I0
sg111
I0
sg43
I2
sg112
I0
sg156
I0
sg79
I4
sg45
I0
sg188
I0
sg57
I0
sg46
I1
sg189
I0
sg59
I4
sg12
I117
sg91
I7
sg139
I0
sg113
I0
sg232
I6
sg61
I24
sg157
I3
sg39
I13
sg135
I0
sg114
I0
sg23
I135
sg40
I76
sg140
I9
sg127
I0
sg80
I0
sg65
I37
sg100
I0
sg84
I37
sg226
I0
sg28
I93
sg68
I13
sg35
I97
sg38
I101
sg9
I113
sg197
I14
sg115
I0
sg18
I30
sg215
I0
sg6
I104
sg41
I24
sg151
I0
sg52
I10
sg14
I57
sg142
I8
sg218
I0
sg75
I0
sg183
I3
sg76
I9
sg116
I0
sg143
I3
sg7
I19
sg85
I0
sg93
I8
sg101
I2
sg11
I0
sg158
I1
sg29
I96
sg118
I0
sg126
I0
sg141
I0
sg102
I27
sg78
I11
sg164
I0
sg172
I0
sg204
I8
sg171
I4
sg24
I33
sg173
I17
sg152
I0
sg119
I0
sg174
I0
sg20
I168
sg120
I0
sg175
I0
sg26
I0
sg176
I5
sg129
I0
sg205
I9
sg50
I8
sg15
I83
sg103
I0
sg161
I0
sg69
I8
sg162
I5
sg37
I2
sg150
I22
sg71
I6
sg190
I2
sg159
I0
sg144
I0
sg227
I0
sg122
I0
sg62
I19
sg221
I3
sg177
I40
sg2
I0
sg228
I11
sg3
I33
sg4
I25
sg54
I70
sg123
I0
sg86
I24
sg55
I10
sg163
I6
sg191
I0
sg178
I6
sg8
I15
sg124
I0
sS'Lord'
p235
I3
sg60
I29
sg216
I0
sg192
I0
sg95
I0
sg179
I10
sg125
I0
sg77
I23
sg198
I14
sg219
I6
sg96
I2
sg48
I6
sg19
I122
sg233
I0
sg180
I4
sg181
I0
sg206
I0
sg22
I12
sg153
I0
sg63
I15
sg25
I5
sg64
I24
sg81
I21
sg82
I1
sg182
I0
sg104
I0
sg105
I17
sg128
I0
sg72
I0
sg27
I7
sg5
I75
sg97
I18
sg145
I0
sg67
I12
sg207
I38
sg94
I0
sg30
I42
sg31
I9
sg208
I7
sg33
I20
sg146
I0
sg34
I73
sg165
I0
sg217
I0
sg130
I0
sg70
I1
sg42
I7
sg131
I0
sg229
I3
sg222
I8
sg51
I151
sg117
I2
sg209
I8
sg223
I0
sg73
I15
sa(dp236
g205
I9
sg185
I11
sg225
I0
sg88
I4
sg72
I0
sg58
I23
sg10
I15
sg133
I0
sg47
I0
sg134
I0
sg13
I0
sg107
I0
sg15
I83
sg200
I11
sg16
I2
sg17
I6
sg21
I5
sg167
I4
sg211
I0
sg194
I8
sg212
I14
sg108
I0
sg201
I3
sg186
I6
sg168
I19
sg135
I0
sg136
I2
sg76
I9
sg195
I4
sg83
I7
sg99
I2
sg231
I0
sg66
I10
sg196
I0
sg187
I0
sg137
I2
sg143
I3
sg89
I3
sg32
I11
sg109
I0
sg202
I0
sg169
I0
sg213
I3
sg214
I0
sg138
I0
sg90
I0
sg155
I17
sg36
I161
sg170
I19
sg148
I4
sg110
I60
sg149
I0
sg92
I25
sg111
I0
sg43
I2
sg112
I0
sg156
I0
sg63
I15
sg81
I21
sg45
I0
sg93
I8
sg57
I0
sg46
I1
sg189
I0
sg59
I4
sg12
I118
sg91
I7
sg139
I0
sg113
I0
sg232
I6
sg61
I24
sg157
I3
sg190
I2
sg49
I10
sg82
I1
sg114
I0
sg23
I135
sg203
I0
sg140
I9
sg104
I0
sg80
I0
sg100
I0
sg84
I43
sg75
I0
sg68
I13
sg35
I104
sg38
I112
sg40
I76
sg115
I0
sg18
I34
sg41
I24
sg151
I0
sg52
I13
sg118
I0
sg235
I3
sg141
I0
sg142
I8
sg177
I54
sg6
I104
sg67
I12
sg56
I2
sg116
I0
sg226
I0
sg7
I19
sg188
I0
sg101
I2
sg11
I0
sg158
I1
sg94
I0
sg197
I14
sg102
I27
sg14
I57
sg215
I0
sg78
I11
sg208
I7
sg172
I0
sg51
I161
sg204
I8
sg171
I4
sg33
I20
sg173
I20
sg152
I0
sg119
I0
sg174
I0
sg20
I184
sg120
I0
sS'Imry'
p237
I0
sg26
I0
sg176
I5
sg121
I0
sg50
I8
sg160
I0
sg103
I0
sg165
I0
sg161
I0
sg69
I8
sg162
I5
sg70
I1
sg37
I2
sg150
I26
sg71
I6
sg39
I13
sg159
I0
sg144
I0
sg227
I0
sg122
I0
sg62
I19
sg42
I11
sg218
I0
sg2
I0
sg228
I11
sg3
I33
sg4
I25
sg54
I72
sg123
I0
sg86
I24
sg55
I11
sg117
I2
sg163
I6
sg191
I0
sg178
I6
sg8
I15
sg124
I0
sg9
I113
sg60
I36
sg216
I0
sg192
I3
sg179
I10
sg125
I0
sS'Boros'
p238
I2
sg198
I14
sg219
I6
sg145
I0
sg96
I2
sg48
I6
sg19
I127
sg233
I0
sg180
I4
sg181
I0
sg206
I0
sg22
I12
sg153
I0
sg79
I4
sg25
I5
sg64
I26
sg126
I0
sg220
I0
sg182
I0
sg127
I0
sg105
I17
sg128
I0
sg175
I0
sg27
I7
sg5
I75
sg97
I18
sg65
I40
sg183
I3
sg207
I44
sg29
I96
sg30
I42
sg31
I9
sg164
I0
sg24
I34
sg146
I0
sg34
I73
sg129
I0
sg217
I0
sg130
I0
sg85
I0
sg221
I3
sg131
I0
sg73
I15
sg229
I4
sg222
I8
sg28
I93
sg95
I0
sg209
I8
sg223
I0
sg77
I23
sa(dp239
g121
I0
sg185
I11
sg220
I0
sg225
I0
sg88
I4
sg219
I6
sg58
I23
sg10
I20
sg133
I0
sg47
I0
sg134
I0
sg13
I0
sg107
I0
sg160
I0
sg200
I16
sg16
I2
sg17
I6
sg21
I5
sg167
I4
sS'Rhaego'
p240
I3
sg211
I0
sg194
I11
sg212
I21
sg108
I0
sg201
I3
sg186
I6
sg168
I19
sg49
I10
sg136
I2
sg56
I2
sg195
I4
sg83
I7
sg99
I2
sg231
I0
sg66
I10
sg196
I0
sg187
I0
sg137
I2
sg89
I3
sg32
I11
sg109
I0
sg202
I0
sg169
I0
sg213
I3
sg214
I0
sg138
I0
sg90
I0
sg155
I21
sg36
I161
sg170
I25
sg148
I4
sg110
I63
sg149
I0
sg203
I0
sg111
I0
sg43
I2
sg112
I0
sg156
I0
sg79
I4
sg45
I0
sg188
I0
sg57
I0
sg46
I1
sg189
I0
sg59
I4
sg12
I125
sg91
I7
sg23
I149
sg139
I0
sg113
I0
sg232
I6
sg61
I24
sg157
I3
sg39
I15
sg135
I0
sg114
I0
sg92
I27
sg40
I79
sg140
I9
sg127
I0
sg80
I0
sg65
I43
sg100
I0
sg84
I45
sg28
I98
sg68
I13
sg77
I23
sg35
I107
sg38
I114
sg9
I121
sg197
I18
sg115
I0
sg18
I34
sg215
I0
sg6
I104
sg72
I0
sg151
I0
sg52
I13
sg14
I60
sg142
I8
sg218
I0
sg75
I0
sg183
I3
sg76
I9
sg116
I0
sg143
I3
sg7
I19
sg85
I0
sg93
I8
sg101
I2
sg11
I0
sg158
I1
sg29
I100
sg118
I0
sg126
I0
sg141
I0
sg102
I30
sg78
I11
sg164
I0
sg172
I0
sg204
I10
sg171
I4
sg24
I37
sg173
I20
sg152
I0
sg119
I0
sg174
I0
sg20
I189
sg120
I0
sg237
I0
sg26
I0
sS'Gelmarr'
p241
I0
sg129
I0
sS'Stygg'
p242
I0
sg205
I13
sg50
I11
sg15
I85
sg103
I0
sg165
I0
sg161
I0
sg69
I8
sg162
I5
sg70
I1
sg37
I2
sg150
I28
sg71
I8
sg190
I2
sg159
I0
sg144
I0
sg227
I0
sg122
I0
sg62
I19
sg221
I3
sg177
I63
sg2
I0
sg228
I14
sg3
I39
sg4
I25
sg54
I72
sg123
I0
sg86
I24
sg55
I13
sg163
I8
sg191
I0
sg178
I6
sg8
I15
sg124
I0
sg235
I10
sg60
I36
sg216
I0
sg192
I3
sg95
I0
sg179
I10
sg125
I0
sg238
I2
sg198
I14
sg226
I0
sg96
I2
sg48
I6
sg19
I133
sg233
I0
sg180
I6
sg181
I0
sg206
I0
sg22
I14
sg153
I0
sg63
I15
sg25
I5
sg64
I29
sg81
I23
sg82
I1
sg182
I0
sg104
I0
sg105
I18
sg128
I0
sg175
I0
sg27
I7
sg5
I82
sg97
I18
sg145
I0
sg67
I12
sg207
I49
sg94
I0
sg30
I42
sg31
I9
sg208
I11
sg33
I20
sg146
I0
sg34
I76
sg41
I24
sg217
I0
sg130
I0
sg176
I5
sg42
I11
sg131
I0
sg229
I4
sg222
I11
sg51
I172
sg117
I2
sg209
I8
sg223
I0
sg73
I15
sa(dp243
g205
I13
sg185
I11
sg225
I0
sg88
I4
sg58
I23
sg10
I23
sg133
I0
sg92
I29
sg47
I0
sg134
I0
sg13
I0
sg107
I0
sg15
I85
sg200
I16
sg16
I2
sg17
I6
sg21
I5
sg167
I6
sg240
I3
sg211
I0
sg194
I18
sg212
I26
sg108
I0
sg201
I3
sg186
I6
sS'Unidentified'
p244
I0
sg168
I24
sg135
I0
sg136
I2
sg76
I9
sg195
I4
sg83
I7
sg99
I2
sg231
I0
sg73
I15
sg66
I10
sg196
I0
sg187
I0
sg137
I2
sg89
I3
sg32
I11
sg109
I0
sg202
I0
sg169
I0
sg213
I3
sg214
I0
sg138
I0
sg90
I0
sg155
I21
sg36
I161
sg162
I5
sg170
I31
sg148
I4
sg110
I75
sg149
I0
sg203
I0
sg111
I0
sg43
I2
sg112
I0
sg156
I0
sg63
I20
sg45
I0
sg93
I8
sg57
I0
sg46
I1
sg189
I0
sg59
I4
sg12
I134
sg91
I7
sS'Mance'
p245
I10
sg113
I0
sg232
I6
sg61
I26
sg157
I3
sg190
I6
sS'Tormund'
p246
I2
sg49
I10
sg82
I1
sg114
I0
sg23
I160
sg40
I79
sg140
I9
sg104
I0
sg80
I0
sg30
I42
sg100
I0
sg84
I49
sg226
I0
sg75
I0
sg68
I13
sg35
I114
sS'Orphan'
p247
I0
sg38
I119
sg118
I0
sg115
I0
sg18
I34
sS'Unsullied'
p248
I8
sS'Qyburn'
p249
I2
sg151
I0
sg52
I13
sg81
I23
sg235
I16
sS'Giant'
p250
I1
sg141
I0
sg142
I8
sg177
I73
sg6
I109
sg67
I12
sg56
I2
sg116
I0
sg143
I3
sg7
I19
sg188
I0
sg101
I2
sg11
I0
sg158
I2
sg94
I0
sg41
I26
sg197
I18
sg126
I0
sg14
I66
sg215
I0
sg78
I11
sg208
I13
sg172
I0
sg51
I178
sg204
I10
sg171
I4
sg33
I20
sg173
I29
sg152
I0
sg119
I0
sg174
I0
sg20
I202
sg120
I0
sg237
I0
sg26
I0
sg241
I0
sg129
I0
sg242
I0
sg121
I0
sg50
I11
sg160
I0
sg103
I0
sg165
I0
sg161
I0
sg69
I8
sg102
I30
sg70
I1
sg37
I2
sg150
I35
sg71
I8
sg39
I15
sg159
I0
sg144
I0
sg227
I0
sg122
I0
sg62
I21
sg42
I11
sS'Boat'
p251
I0
sg218
I0
sg2
I0
sg228
I15
sg3
I39
sg4
I25
sg54
I72
sg123
I0
sg86
I24
sg55
I13
sg117
I2
sg163
I8
sg191
I0
sg178
I6
sg8
I15
sg124
I0
sg9
I135
sg60
I36
sg216
I0
sg192
I3
sS'Mirelle'
p252
I0
sg179
I10
sg125
I0
sS"Margaery's"
p253
I0
sg198
I14
sg219
I6
sg145
I0
sg96
I2
sg48
I6
sg19
I140
sg233
I0
sg180
I6
sg181
I0
sg206
I0
sg22
I14
sg153
I0
sg79
I4
sg25
I5
sg64
I29
sS'Kraznys'
p254
I5
sg220
I0
sg182
I0
sg127
I0
sg105
I19
sg128
I0
sg176
I5
sg175
I0
sg27
I7
sg5
I82
sg97
I18
sg65
I43
sg183
I3
sg207
I53
sg29
I100
sS'Missandei'
p255
I2
sg31
I9
sg164
I0
sg139
I0
sg24
I37
sg146
I0
sg34
I76
sg72
I0
sg217
I0
sg130
I0
sg85
I0
sg221
I3
sg131
I0
sg238
I2
sg229
I4
sg222
I11
sg28
I100
sg95
I0
sg209
I8
sg223
I0
sg77
I25
sa(dp256
g121
I0
sg185
I11
sg220
I0
sg225
I0
sg88
I4
sg72
I0
sg58
I23
sg164
I0
sg10
I23
sg133
I0
sg47
I0
sg134
I0
sg13
I0
sg216
I0
sg107
I0
sg160
I0
sg200
I16
sg16
I2
sg17
I6
sg21
I5
sg167
I6
sg240
I3
sg211
I0
sg194
I32
sg212
I26
sg108
I0
sS'Ramsay'
p257
I2
sg186
I8
sg244
I0
sg168
I24
sg49
I10
sg136
I2
sg56
I2
sg195
I4
sg83
I7
sg99
I2
sg231
I0
sg191
I0
sg66
I10
sg196
I0
sg187
I0
sg69
I8
sg137
I2
sg143
I3
sg89
I3
sg32
I11
sg109
I0
sg202
I0
sg169
I0
sg213
I3
sg214
I0
sg138
I0
sg90
I0
sg155
I23
sg36
I168
sg162
I5
sg170
I31
sg148
I4
sg110
I76
sg149
I0
sg203
I0
sg111
I0
sg43
I2
sg112
I0
sg156
I0
sg63
I20
sg45
I0
sg188
I0
sg57
I0
sg46
I5
sS'Master'
p258
I0
sg59
I4
sg12
I147
sg91
I7
sS'Thoros'
p259
I6
sg245
I17
sg113
I0
sg62
I22
sg232
I6
sg61
I28
sg157
I5
sg79
I6
sg39
I18
sg246
I2
sg135
I0
sg114
I0
sg92
I34
sg40
I91
sg140
I9
sg127
I0
sg80
I0
sg65
I43
sg100
I0
sg84
I49
sg28
I117
sg68
I13
sg77
I27
sg254
I5
sg35
I130
sg247
I0
sg38
I123
sg9
I135
sg197
I31
sg115
I0
sg18
I37
sg248
I8
sg6
I113
sg249
I2
sg151
I0
sg52
I13
sg250
I1
sg14
I66
sg142
I8
sg218
I0
sS'Olenna'
p260
I9
sg75
I0
sg183
I3
sg76
I9
sg116
I0
sg226
I0
sg7
I19
sg85
I0
sg93
I8
sg101
I2
sg11
I0
sg158
I2
sg29
I107
sg118
I0
sg126
I0
sg141
I0
sg215
I0
sg78
I11
sS'Meera'
p261
I2
sg172
I0
sg204
I14
sg171
I4
sg24
I38
sg173
I29
sg152
I0
sg119
I0
sg174
I0
sg20
I208
sg120
I0
sg237
I0
sg26
I0
sg102
I35
sg241
I0
sg129
I0
sg242
I0
sg205
I18
sg50
I11
sg15
I102
sg103
I0
sg165
I0
sg161
I0
sS'Tyrell'
p262
I7
sS'Locke'
p263
I2
sg37
I2
sg150
I40
sg71
I10
sg190
I6
sg159
I0
sg144
I0
sg227
I0
sg189
I0
sg122
I0
sg201
I3
sg221
I3
sg251
I0
sg177
I74
sg2
I0
sg228
I17
sg3
I40
sg4
I25
sg54
I86
sg123
I0
sg86
I24
sg55
I13
sg163
I10
sS'Anguy'
p264
I0
sg178
I6
sg8
I15
sg124
I0
sg235
I21
sg255
I2
sg60
I36
sS'Jojen'
p265
I11
sg192
I3
sS'Orell'
p266
I4
sg95
I0
sg179
I10
sg125
I0
sg253
I0
sg198
I14
sg219
I6
sg96
I2
sg48
I6
sg19
I159
sg233
I0
sg180
I6
sg181
I0
sg206
I0
sg22
I19
sg23
I174
sg153
I0
sS'Riverrun'
p267
I5
sg25
I5
sg64
I29
sg81
I28
sg82
I1
sg182
I0
sg104
I0
sg105
I19
sg128
I0
sg176
I5
sg175
I0
sg27
I7
sg139
I0
sg5
I88
sg97
I18
sg145
I0
sg67
I12
sg207
I61
sg94
I0
sg30
I42
sg31
I9
sg208
I13
sg252
I0
sg33
I20
sg146
I0
sg34
I76
sg41
I28
sg217
I0
sg130
I0
sg70
I1
sg42
I11
sg131
I0
sg238
I2
sg229
I4
sg222
I11
sg51
I185
sg117
I2
sg209
I8
sg223
I0
sg73
I15
sa(dp268
g205
I22
sg185
I11
sg208
I13
sg201
I3
sg225
I0
sg88
I4
sg219
I6
sg58
I23
sg249
I2
sS'Brynden'
p269
I11
sg10
I31
sg133
I0
sg47
I0
sg134
I0
sg13
I0
sg107
I0
sg15
I104
sg200
I16
sg16
I2
sg17
I6
sg21
I5
sg267
I10
sg167
I6
sg240
I3
sg211
I0
sg194
I32
sg212
I26
sg108
I0
sg257
I2
sg186
I8
sg244
I0
sg191
I0
sg135
I0
sg136
I2
sg76
I9
sg195
I4
sg83
I7
sg99
I2
sg231
I0
sg73
I15
sg66
I10
sg196
I0
sg187
I0
sg262
I11
sg137
I2
sg89
I3
sg32
I11
sg109
I0
sg202
I0
sg169
I0
sg213
I3
sg214
I0
sg138
I0
sg90
I0
sg155
I23
sg36
I168
sg263
I13
sg170
I31
sg148
I4
sg110
I96
sg149
I0
sg203
I0
sg111
I0
sg43
I2
sg112
I0
sg156
I0
sg79
I6
sg45
I0
sg93
I8
sg57
I0
sg46
I5
sg258
I2
sg59
I4
sS'Genna'
p270
I2
sg175
I0
sg12
I161
sg91
I7
sg259
I9
sg245
I29
sg113
I0
sg232
I6
sg61
I30
sg157
I5
sS'Kayla'
p271
I2
sg190
I6
sg246
I8
sg49
I10
sg82
I1
sg114
I0
sg92
I34
sg40
I95
sS'Edmure'
p272
I10
sg140
I9
sg104
I0
sg80
I0
sg252
I0
sg30
I44
sg100
I0
sg84
I56
sg75
I0
sg68
I13
sS'Willem'
p273
I3
sS'Hoster'
p274
I5
sg35
I130
sg247
I0
sg38
I127
sg118
I0
sg115
I0
sg18
I39
sg248
I16
sS"Craster's"
p275
I0
sg151
I0
sg52
I13
sg81
I32
sg235
I31
sg250
I1
sg141
I0
sg142
I8
sg177
I76
sg260
I9
sg6
I116
sg67
I12
sg56
I2
sg116
I0
sg143
I3
sg7
I19
sg85
I0
sg188
I0
sg101
I2
sg11
I0
sg158
I2
sg94
I0
sg41
I31
sg197
I40
sg126
I0
sg14
I74
sg215
I0
sg78
I11
sg261
I2
sg172
I0
sg51
I197
sg204
I18
sg171
I8
sg33
I20
sg173
I29
sg152
I0
sg119
I0
sg174
I0
sg20
I228
sg120
I0
sg237
I0
sg216
I0
sg102
I35
sg241
I0
sg129
I0
sg242
I0
sg121
I0
sg50
I11
sS'Greizhen'
p276
I0
sg160
I0
sg103
I0
sg165
I0
sg264
I0
sg161
I0
sg69
I8
sg162
I5
sg70
I1
sg37
I2
sg150
I42
sg71
I10
sg39
I18
sg159
I0
sg144
I0
sg227
I0
sg189
I0
sg122
I0
sg62
I24
sS"Gilly's"
p277
I0
sg42
I11
sg251
I0
sg218
I0
sg2
I0
sg228
I17
sg3
I40
sg4
I25
sg54
I87
sg123
I0
sg86
I27
sg55
I15
sg117
I2
sg163
I15
sg168
I33
sg178
I6
sg8
I15
sg124
I0
sg9
I153
sg60
I36
sg265
I11
sg192
I7
sg266
I6
sg179
I10
sg125
I0
sg77
I29
sg198
I14
sg226
I0
sg145
I0
sg96
I2
sg48
I6
sg19
I159
sg233
I0
sg180
I6
sg181
I0
sg206
I0
sg22
I21
sg23
I180
sg153
I0
sg63
I27
sg25
I5
sg64
I32
sg254
I11
sg220
I0
sg182
I0
sg127
I0
sg105
I19
sg128
I0
sg176
I5
sS'Tortured'
p278
I0
sg27
I7
sg5
I97
sg97
I21
sg65
I46
sg183
I3
sg26
I0
sg207
I74
sg29
I115
sg255
I9
sg31
I9
sg164
I0
sg139
I0
sg24
I40
sg146
I0
sg34
I76
sg72
I0
sg217
I0
sg130
I0
sS'Martyn'
p279
I3
sg221
I3
sg131
I0
sg238
I2
sg229
I4
sg222
I11
sg28
I135
sg95
I0
sg209
I8
sg223
I0
sg253
I0
sS'Karl'
p280
I0
sa(dp281
g121
I0
sg185
I13
sg220
I0
sg253
I0
sg225
I0
sg88
I4
sg72
I0
sg58
I23
sg164
I0
sg269
I11
sg10
I34
sg133
I0
sS'Sorcerer'
p282
I0
sg47
I0
sg134
I0
sg13
I0
sg107
I0
sg160
I0
sg200
I16
sg16
I2
sg17
I6
sg21
I5
sg167
I6
sg240
I3
sg211
I0
sg194
I41
sg212
I26
sg108
I0
sg201
I3
sg186
I11
sg244
I0
sg191
I0
sg49
I10
sg136
I2
sg56
I2
sg195
I4
sg83
I7
sg99
I3
sg231
I0
sg66
I10
sg196
I0
sg187
I0
sg69
I11
sg137
I2
sg89
I3
sg32
I11
sg109
I0
sg202
I0
sg169
I0
sg213
I3
sg214
I0
sg138
I0
sg90
I0
sg155
I23
sg36
I171
sg162
I5
sg170
I33
sg148
I4
sg110
I105
sg149
I0
sg203
I0
sg111
I0
sg43
I2
sg112
I0
sg156
I0
sg267
I10
sg45
I0
sg188
I0
sg57
I0
sg46
I20
sg258
I2
sg59
I4
sg270
I2
sg12
I164
sg91
I7
sg259
I13
sg245
I29
sg113
I0
sg62
I24
sg232
I6
sg61
I32
sg157
I5
sg271
I2
sg39
I18
sg246
I8
sg135
I0
sg114
I0
sg92
I36
sg40
I97
sg272
I10
sg140
I9
sg127
I0
sg80
I0
sg65
I69
sg100
I0
sg84
I56
sg226
I0
sg28
I162
sg278
I0
sg68
I13
sg273
I3
sg274
I5
sg254
I19
sg35
I142
sg247
I0
sg38
I138
sg9
I164
sg197
I48
sg115
I0
sg18
I47
sg248
I24
sg6
I121
sg249
I2
sg151
I0
sg52
I13
sg250
I1
sg14
I76
sg142
I8
sg218
I0
sg260
I12
sg75
I0
sg183
I3
sg76
I9
sg116
I0
sg143
I3
sg7
I19
sg93
I8
sg101
I2
sg11
I0
sg158
I6
sg29
I118
sg41
I35
sg118
I0
sg126
I0
sg141
I0
sg215
I0
sg78
I11
sg261
I2
sg172
I0
sg204
I18
sg171
I13
sg24
I40
sg173
I29
sg152
I0
sg119
I0
sg174
I0
sg20
I237
sg120
I0
sg175
I0
sg216
I0
sg102
I35
sg241
I0
sg129
I0
sg242
I0
sg205
I22
sg50
I11
sg276
I0
sS'Bolton'
p283
I0
sg15
I112
sg103
I0
sg165
I0
sg161
I0
sg262
I17
sg263
I28
sg70
I1
sg37
I2
sg150
I42
sg71
I14
sg190
I6
sg159
I0
sg144
I0
sg227
I0
sg189
I0
sg122
I0
sg257
I2
sg277
I0
sg221
I3
sg251
I0
sg177
I78
sg2
I0
sg228
I17
sg3
I40
sg4
I25
sg54
I87
sg123
I0
sg86
I31
sg55
I15
sg163
I15
sg264
I0
sg178
I6
sg8
I15
sg124
I0
sg235
I36
sg63
I29
sg255
I13
sg60
I36
sg265
I16
sg192
I9
sg252
I0
sg95
I0
sg179
I10
sg125
I0
sg77
I31
sg198
I14
sg219
I6
sg96
I2
sg48
I10
sg19
I166
sg233
I0
sg180
I6
sg181
I0
sg206
I0
sg22
I24
sg23
I180
sg153
I0
sg79
I6
sg25
I5
sg64
I32
sg81
I33
sg82
I1
sg182
I0
sg104
I0
sg105
I21
sg128
I0
sg176
I5
sg237
I0
sg27
I7
sg139
I0
sg168
I54
sg5
I114
sg97
I21
sg145
I0
sg67
I12
sg26
I0
sg207
I92
sg94
I0
sg30
I44
sg31
I9
sg208
I13
sg266
I6
sg33
I20
sg146
I0
sg34
I76
sg275
I0
sg217
I0
sg130
I0
sg85
I0
sg42
I11
sg131
I0
sg238
I2
sg229
I4
sg222
I11
sg51
I205
sg117
I2
sg209
I8
sg279
I3
sg223
I0
sg73
I15
sg280
I2
sa(dp284
S'Karstark'
p285
I20
sg185
I13
sg208
I13
sg225
I0
sg88
I4
sg58
I25
sg269
I13
sg10
I34
sg133
I0
sg282
I0
sg47
I0
sg134
I0
sg13
I0
sS'Shireen'
p286
I7
sg107
I0
sg15
I112
sg200
I16
sg16
I2
sg17
I6
sg21
I5
sg167
I6
sg240
I3
sg211
I0
sg194
I42
sg212
I26
sg108
I0
sg62
I27
sg186
I11
sg244
I0
sg191
I0
sg49
I10
sg136
I2
sg76
I9
sg195
I4
sg83
I7
sg99
I29
sg231
I0
sg73
I15
sg66
I10
sg196
I0
sg187
I0
sg262
I27
sg137
I2
sg143
I3
sg89
I3
sg32
I11
sg109
I0
sg202
I0
sg169
I1
sg213
I3
sg214
I0
sg138
I0
sg90
I0
sg155
I23
sg36
I173
sg263
I30
sg170
I34
sg148
I6
sg110
I124
sg149
I0
sg203
I0
sg111
I0
sg43
I2
sg112
I0
sg156
I0
sg63
I44
sg45
I0
sg93
I8
sg57
I0
sg46
I20
sg258
I2
sg59
I4
sg270
I2
sg238
I2
sg12
I208
sg91
I7
sg259
I27
sg245
I30
sg113
I0
sg232
I6
sg61
I32
sg157
I16
sg271
I2
sg79
I8
sg190
I6
sg246
I10
sS'Edric'
p287
I0
sg82
I3
sg114
I0
sg92
I41
sg40
I102
sg272
I13
sg140
I9
sg104
I0
sg80
I0
sg275
I0
sg30
I44
sg100
I0
sg84
I56
sg128
I0
sg75
I0
sg68
I13
sg273
I7
sg274
I5
sg35
I149
sg247
I0
sg38
I149
sg118
I0
sg115
I0
sg18
I61
sg237
I0
sg248
I32
sg72
I0
sg151
I0
sg52
I13
sg81
I42
sg235
I54
sg250
I1
sg141
I0
sg142
I8
sg177
I83
sg260
I17
sg6
I134
sg67
I12
sg56
I2
sg116
I0
sg226
I0
sg7
I19
sg85
I0
sg188
I0
sg101
I2
sg257
I2
sg11
I0
sg158
I6
sg94
I0
sg41
I35
sg197
I55
sg126
I0
sg14
I94
sg168
I54
sg215
I0
sg78
I11
sg261
I2
sg172
I0
sg51
I230
sg204
I19
sg171
I13
sg33
I20
sg173
I36
sg152
I0
sg119
I0
sg174
I0
sg20
I248
sg120
I0
sg175
I0
sS'Olyvar'
p288
I2
sg102
I35
sg241
I0
sg265
I16
sg129
I0
sg242
I0
sg121
I0
sg50
I11
sg276
I0
sg283
I1
sg160
I0
sg103
I0
sg165
I0
sg161
I0
sg69
I13
sg162
I5
sg279
I7
sg37
I2
sS'Tommard'
p289
I0
sg150
I42
sg71
I14
sg39
I18
sg159
I0
sg144
I0
sg227
I0
sg189
I0
sg122
I0
sg201
I3
sg277
I0
sg42
I11
sg251
I0
sg218
I0
sg2
I0
sg228
I22
sg3
I40
sg4
I25
sg205
I30
sg123
I0
sg86
I31
sg55
I16
sg117
I2
sg163
I15
sg264
I1
sg178
I6
sg8
I15
sg124
I0
sg9
I178
sg60
I36
sg216
I0
sg192
I9
sg252
I0
sg179
I10
sg125
I0
sg253
I0
sg198
I14
sg219
I6
sg145
I0
sg96
I2
sg48
I10
sg19
I169
sg233
I0
sg180
I6
sg181
I0
sg206
I0
sg22
I24
sg23
I189
sg153
I0
sg267
I18
sg25
I5
sg64
I33
sg254
I19
sg220
I0
sg182
I0
sg127
I0
sg105
I21
sS'Grey'
p290
I5
sg176
I5
sg278
I0
sg27
I7
sg54
I90
sg5
I116
sg97
I21
sg65
I74
sg183
I3
sg26
I0
sg207
I99
sg29
I134
sg255
I16
sg31
I9
sg164
I0
sg139
I0
sg24
I42
sg146
I0
sg34
I76
sg249
I3
sg217
I0
sg130
I0
sg70
I1
sg266
I7
sg221
I3
sg131
I0
sg135
I0
sg229
I4
sg222
I11
sg28
I178
sg95
I0
sg209
I8
sg223
I0
sg77
I31
sg280
I2
sa(dp291
g285
I22
sg185
I13
sg220
I0
sg201
I3
sg225
I0
sg88
I4
sg219
I6
sg58
I25
sg249
I3
sg164
I0
sg269
I13
sg10
I34
sg133
I0
sg282
I0
sg47
I0
sg134
I0
sg13
I0
sg286
I7
sg216
I0
sg107
I0
sg160
I0
sg200
I16
sg16
I2
sg17
I6
sg21
I5
sg267
I20
sg167
I6
sg240
I3
sg211
I0
sg194
I42
sg212
I26
sg108
I0
sg62
I29
sg186
I11
sg244
I0
sg191
I0
sg287
I0
sg136
I2
sg56
I2
sg195
I4
sg83
I7
sg99
I30
sg231
I0
sg66
I10
sg196
I0
sg187
I0
sS'Lothar'
p292
I2
sg69
I13
sg137
I2
sg89
I3
sg32
I11
sg109
I0
sg202
I0
sg169
I1
sg213
I3
sg214
I0
sg138
I0
sg90
I0
sg155
I23
sg36
I173
sg162
I5
sg170
I35
sg148
I10
sg110
I130
sg149
I0
sg203
I0
sg153
I0
sg111
I0
sg43
I2
sg112
I0
sg156
I0
sg79
I8
sg45
I0
sg188
I0
sg57
I0
sg46
I20
sg258
I2
sg59
I4
sg270
I2
sg12
I211
sg91
I7
sg259
I28
sg245
I30
sg113
I0
sg232
I7
sg61
I32
sg157
I17
sg271
I2
sg39
I18
sg246
I13
sg49
I10
sg114
I0
sg92
I53
sg40
I102
sg272
I17
sg140
I9
sg127
I0
sg80
I0
sg65
I81
sg100
I0
sg84
I56
sg290
I5
sg28
I187
sg278
I0
sg68
I13
sg77
I33
sg273
I7
sg274
I5
sg254
I19
sg35
I159
sg247
I0
sg38
I162
sg9
I178
sg197
I58
sg115
I0
sg18
I61
sg248
I32
sg6
I135
sg275
I0
sg151
I0
sg52
I13
sg250
I1
sg14
I94
sg142
I8
sg218
I0
sg260
I22
sg75
I0
sg183
I3
sg76
I9
sg116
I0
sg143
I3
sg7
I19
sS'Black'
p293
I4
sg93
I8
sg101
I2
sg11
I0
sg158
I6
sg70
I1
sg29
I136
sg41
I39
sg118
I0
sg126
I0
sg141
I0
sg215
I0
sg78
I11
sg261
I5
sg172
I0
sg204
I21
sg171
I16
sg24
I42
sg173
I36
sg152
I0
sg119
I0
sg174
I0
sg20
I257
sg120
I0
sg237
I0
sg288
I2
sg102
I37
sg241
I0
sg129
I0
sg242
I0
sg121
I0
sg50
I11
sg276
I0
sg283
I7
sg15
I115
sg103
I0
sg165
I0
sg264
I3
sg161
I0
sg262
I29
sg263
I30
sg279
I7
sg37
I2
sg289
I0
sg150
I45
sg71
I14
sg190
I6
sg159
I0
sg144
I0
sg227
I0
sg189
I0
sg122
I0
sg257
I2
sg277
I0
sg221
I3
sg251
I0
sg177
I84
sg2
I0
sg228
I29
sg3
I40
sg4
I25
sg205
I30
sg123
I0
sg86
I31
sg55
I16
sg163
I15
sg168
I56
sg178
I6
sg8
I15
sg124
I0
sg235
I59
sg255
I16
sg60
I36
sg265
I19
sg192
I9
sg252
I0
sg95
I0
sg179
I10
sg125
I0
sg238
I2
sg198
I14
sg226
I0
sg96
I2
sg48
I10
sg19
I175
sg233
I0
sg180
I6
sg181
I0
sg206
I0
sg22
I24
sg23
I198
sg253
I0
sg63
I44
sg25
I5
sg64
I33
sg81
I43
sg82
I3
sg182
I0
sg104
I0
sg105
I21
sg128
I0
sg176
I5
sg175
I0
sg27
I7
sg54
I90
sg5
I118
sg97
I21
sg145
I0
sg67
I12
sg26
I0
sg207
I102
sg94
I0
sg30
I44
sg31
I9
sg208
I13
sg139
I0
sg33
I20
sg146
I0
sg34
I76
sg72
I0
sg217
I0
sg130
I0
sg85
I0
sg266
I8
sg42
I11
sg131
I0
sg135
I0
sg229
I4
sg222
I11
sg51
I234
sg117
I2
sg209
I8
sg223
I0
sg73
I15
sg280
I2
sa(dp294
g285
I22
sg185
I13
sg208
I13
sg225
I0
sg88
I4
sg189
I0
sg72
I0
sg58
I25
sg269
I13
sg10
I34
sg133
I0
sg282
I0
sg47
I0
sg134
I0
sg13
I0
sg286
I7
sg107
I0
sg15
I117
sg200
I16
sg16
I2
sg17
I6
sg21
I5
sg167
I6
sg240
I3
sg211
I0
sg194
I44
sg212
I26
sg108
I0
sg62
I29
sg186
I11
sg244
I0
sg191
I0
sg49
I10
sg136
I2
sS'Myranda'
p295
I0
sg76
I9
sg195
I4
sg83
I7
sg99
I30
sg231
I0
sg73
I15
sg66
I10
sg196
I0
sg187
I0
sg292
I2
sg262
I31
sg137
I2
sg89
I3
sg32
I11
sg109
I0
sg202
I0
sg169
I1
sg213
I3
sg214
I0
sg138
I0
sg90
I0
sg155
I23
sg36
I173
sg263
I39
sg170
I39
sg148
I12
sg110
I147
sg149
I0
sg203
I0
sg111
I0
sg43
I2
sg112
I0
sg156
I0
sg267
I20
sg45
I0
sg93
I8
sg57
I0
sg46
I20
sS'Razdal'
p296
I9
sg59
I4
sg270
I2
sg175
I0
sg54
I90
sg12
I218
sg91
I7
sg259
I28
sg288
I2
sg245
I32
sg113
I0
sg232
I7
sg61
I32
sg157
I17
sg271
I2
sg190
I6
sg246
I15
sg287
I0
sg82
I3
sg114
I0
sg92
I53
sg40
I105
sg272
I20
sg140
I9
sg104
I0
sg80
I0
sg30
I44
sg100
I0
sg84
I59
sg128
I0
sg226
I0
sg75
I0
sg68
I13
sg273
I7
sg274
I5
sg35
I164
sg247
I0
sg38
I162
sg118
I0
sg115
I0
sg18
I63
sS'Violet'
p297
I0
sg248
I35
sg253
I0
sg249
I12
sg151
I0
sg52
I13
sg81
I48
sg235
I67
sg250
I1
sg141
I0
sg142
I8
sg177
I85
sg260
I22
sg6
I137
sg67
I12
sg56
I2
sg116
I0
sg143
I3
sg7
I19
sg293
I6
sg85
I0
sg188
I0
sg101
I2
sg257
I2
sg11
I0
sg158
I8
sg94
I0
sg41
I39
sg197
I70
sg126
I0
sg14
I97
sg215
I0
sg78
I11
sg261
I7
sg172
I0
sg51
I238
sg204
I23
sg171
I16
sg33
I20
sg173
I36
sg152
I0
sg119
I0
sg174
I0
sg20
I265
sg120
I0
sg237
I0
sg216
I0
sg102
I40
sg241
I0
sg129
I0
sg242
I0
sg121
I0
sg50
I11
sg276
I0
sg283
I14
sg160
I0
sg103
I0
sg165
I0
sg161
I0
sg69
I13
sg162
I5
sg279
I7
sg37
I2
sg289
I0
sg150
I48
sg71
I14
sg39
I18
sg27
I7
sg159
I0
sg144
I0
sg227
I0
sg258
I2
sg122
I0
sg201
I3
sg277
I0
sg42
I11
sg251
I0
sg218
I0
sg2
I0
sg228
I35
sg3
I40
sg4
I25
sg205
I31
sg123
I0
sg86
I31
sg55
I18
sg117
I2
sg163
I15
sg264
I3
sg178
I6
sg8
I15
sg124
I0
sg9
I192
sg63
I46
sg60
I36
sg265
I21
sg192
I9
sg252
I0
sg179
I10
sg125
I0
sg77
I33
sg198
I14
sg219
I6
sg145
I0
sg96
I2
sg48
I10
sg19
I190
sg233
I0
sg180
I6
sg181
I0
sg206
I0
sg22
I24
sg23
I207
sg153
I0
sg79
I8
sg25
I5
sg64
I33
sg254
I19
sg220
I0
sg182
I0
sg127
I0
sg105
I21
sg290
I7
sg176
I5
sg278
I0
sS'Steelshanks'
p298
I5
sg168
I56
sg5
I129
sg97
I21
sg65
I81
sg183
I3
sg26
I0
sg207
I114
sg29
I138
sg255
I18
sg31
I9
sg164
I0
sg139
I0
sg24
I47
sg146
I0
sg34
I76
sg275
I0
sg217
I0
sg130
I0
sg70
I1
sg266
I12
sg221
I3
sg131
I0
sg135
I0
sg229
I4
sg222
I11
sg28
I214
sg95
I0
sg209
I8
sg223
I0
sg238
I2
sg280
I2
sa(dp299
g285
I22
sg185
I15
sg220
I0
sg201
I3
sg225
I0
sg88
I4
sg58
I25
sg164
I0
sg269
I13
sg10
I37
sS'Prendahl'
p300
I6
sg282
I0
sg47
I0
sg134
I0
sg13
I0
sg286
I7
sg107
I0
sg160
I0
sg200
I16
sg16
I2
sg17
I6
sg21
I5
sg167
I6
sg240
I3
sg211
I0
sg194
I48
sg212
I26
sg108
I0
sg62
I29
sg186
I11
sg244
I0
sg191
I0
sg287
I0
sg136
I2
sg295
I0
sg56
I2
sg195
I4
sg83
I7
sg99
I30
sg231
I0
sg66
I10
sg196
I0
sg187
I0
sg292
I2
sg69
I13
sg137
I2
sg143
I3
sg89
I3
sg32
I11
sg109
I0
sg202
I0
sg169
I1
sg213
I3
sg214
I0
sg138
I0
sg90
I0
sg155
I23
sg36
I173
sg162
I5
sg170
I48
sg148
I12
sg110
I152
sg149
I0
sg203
I0
sg255
I25
sg111
I0
sg43
I2
sg112
I0
sg156
I0
sg63
I51
sg45
I0
sg188
I0
sg57
I0
sS'Daario'
p301
I8
sg189
I0
sg59
I4
sg270
I2
sg238
I2
sg12
I220
sg91
I7
sg259
I28
sg245
I32
sg113
I0
sg232
I7
sg61
I32
sg157
I17
sg271
I2
sg79
I8
sg39
I18
sg246
I15
sg133
I0
sg49
I10
sg114
I0
sg92
I53
sg40
I105
sg272
I20
sg140
I9
sg127
I0
sg80
I0
sg275
I0
sg65
I81
sg227
I0
sg100
I0
sg84
I59
sg290
I7
sg258
I2
sg97
I21
sg278
I0
sg68
I13
sg77
I34
sg273
I7
sg274
I5
sg254
I19
sg35
I178
sg28
I214
sg247
I0
sg38
I167
sg9
I204
sg197
I70
sg115
I0
sg18
I67
sg297
I0
sg248
I39
sg6
I137
sg72
I0
sg151
I0
sg52
I13
sg250
I1
sg14
I99
sg142
I8
sg218
I0
sg260
I22
sg75
I0
sg183
I3
sg76
I9
sg116
I0
sg226
I0
sg7
I19
sg293
I7
sg93
I8
sg101
I2
sg11
I0
sg158
I8
sg70
I1
sg29
I145
sg41
I39
sg118
I0
sg126
I0
sg141
I0
sg215
I0
sg78
I11
sg261
I7
sg172
I0
sg204
I23
sg171
I23
sg24
I47
sg173
I47
sg152
I0
sg119
I0
sg174
I0
sg20
I284
sg120
I0
sg175
I0
sg288
I2
sg102
I40
sg241
I0
sg265
I21
sg129
I0
sg242
I0
sg121
I0
sg50
I11
sg276
I0
sg283
I14
sg15
I117
sg103
I0
sg165
I0
sg161
I0
sg262
I36
sg263
I39
sg279
I7
sg37
I2
sg46
I20
sg289
I0
sg150
I49
sg71
I14
sg190
I6
sg159
I0
sg144
I0
sS'Mero'
p302
I9
sg296
I9
sg122
I0
sg257
I2
sg277
I0
sg221
I3
sg251
I0
sg177
I96
sg2
I0
sg228
I35
sg3
I40
sg4
I25
sg54
I92
sg123
I0
sg86
I31
sg55
I18
sg163
I15
sg264
I3
sg178
I6
sg8
I15
sg124
I0
sg235
I69
sg205
I31
sg60
I36
sg216
I0
sg192
I9
sg252
I0
sg95
I0
sg179
I10
sg125
I0
sg253
I0
sg198
I14
sg219
I6
sg96
I2
sg48
I10
sg19
I203
sg233
I0
sg180
I6
sg181
I0
sg206
I0
sg22
I24
sg23
I207
sg153
I0
sg267
I20
sg25
I5
sg64
I33
sg81
I55
sg82
I3
sg182
I0
sg104
I0
sg105
I24
sg128
I0
sg176
I5
sg237
I0
sg27
I7
sg168
I56
sg5
I129
sg298
I5
sg145
I0
sg67
I12
sg26
I0
sg207
I125
sg94
I0
sg30
I44
sg31
I9
sg208
I13
sg139
I0
sg33
I20
sg146
I0
sg34
I76
sg249
I12
sg217
I0
sg130
I0
sg85
I0
sg266
I12
sg42
I11
sg131
I0
sg135
I0
sg229
I6
sg222
I11
sg51
I243
sg117
I2
sg209
I8
sg223
I0
sg73
I15
sg280
I2
sa(dp303
g285
I22
sg185
I15
sg208
I13
sg205
I34
sg225
I0
sg88
I4
sg296
I9
sg219
I6
sg58
I25
sg249
I12
sg269
I14
sg10
I39
sg300
I6
sg282
I0
sS'Derwa'
p304
I0
sg134
I0
sg13
I0
sg286
I7
sg216
I0
sg107
I0
sg15
I127
sg200
I16
sg16
I2
sg17
I6
sg21
I5
sg267
I20
sg167
I6
sg240
I3
sg211
I0
sg194
I48
sg212
I26
sg108
I0
sg201
I3
sg186
I11
sg244
I0
sg191
I0
sg49
I10
sg136
I2
sg295
I0
sg97
I21
sg195
I4
sg83
I7
sg99
I30
sg231
I0
sg73
I15
sg66
I10
sg196
I0
sg187
I0
sg292
I5
sg262
I36
sg137
I2
sg89
I3
sg32
I11
sg109
I0
sg202
I0
sg169
I1
sg213
I3
sg214
I0
sg138
I0
sg90
I0
sg155
I23
sg36
I173
sg162
I5
sg170
I48
sg148
I19
sg218
I0
sg110
I152
sg149
I0
sg203
I0
sg177
I96
sg111
I0
sg43
I2
sg112
I0
sg156
I0
sg79
I8
sg153
I2
sg45
I0
sg93
I8
sg57
I0
sg301
I17
sg189
I0
sg59
I4
sg270
I2
sg54
I92
sg12
I229
sg91
I7
sg259
I28
sg245
I32
sg113
I0
sg232
I7
sg61
I32
sg157
I17
sg271
I2
sg190
I6
sg246
I20
sg133
I0
sg287
I0
sg82
I3
sg114
I0
sg92
I53
sg40
I111
sg272
I22
sg47
I0
sg140
I9
sg104
I0
sg80
I0
sg302
I9
sg30
I44
sg100
I0
sg84
I59
sg128
I0
sg75
I0
sg68
I13
sg77
I36
sg273
I7
sg274
I5
sg35
I178
sg247
I0
sg38
I167
sg118
I0
sg115
I0
sg18
I69
sg237
I0
sg297
I0
sg248
I39
sg275
I0
sg151
I0
sg52
I13
sg81
I55
sg235
I73
sg250
I1
sg141
I0
sg142
I8
sg76
I9
sS'Wendel'
p305
I0
sg260
I22
sg6
I137
sg67
I12
sg56
I2
sg116
I0
sg143
I3
sg7
I19
sg293
I11
sg85
I0
sg188
I0
sg101
I2
sg257
I2
sg11
I0
sg158
I8
sS'Janeya'
p306
I0
sg94
I0
sS'Serra'
p307
I0
sg41
I39
sg197
I70
sg126
I0
sg14
I106
sg168
I56
sS'Frey'
p308
I11
sg215
I0
sg78
I11
sg261
I9
sg172
I0
sg51
I245
sg204
I26
sg171
I27
sg33
I20
sg173
I47
sg152
I0
sg119
I0
sS'Walda'
p309
I0
sg174
I0
sg20
I284
sg120
I0
sg175
I0
sg288
I2
sg102
I45
sg241
I0
sg129
I0
sg242
I0
sg121
I0
sg50
I11
sg276
I0
sg283
I16
sg160
I0
sg103
I0
sg165
I0
sg264
I3
sg161
I0
sg69
I13
sS'Marianne'
p310
I0
sg279
I7
sg37
I2
sg46
I20
sg289
I0
sg150
I49
sg71
I14
sg39
I21
sg159
I0
sg144
I0
sg227
I0
sg258
I2
sg122
I0
sg62
I29
sg277
I0
sg42
I11
sg251
I0
sS'Hog'
p311
I0
sg2
I0
sg228
I40
sg3
I40
sg4
I25
sS'Roslin'
p312
I1
sg123
I0
sg86
I31
sg55
I18
sg117
I2
sg163
I15
sS'Drummer'
p313
I0
sg178
I6
sg8
I15
sg124
I0
sg9
I209
sg263
I39
sS'Shirei'
p314
I0
sg60
I36
sg265
I25
sg192
I9
sS'Freya'
p315
I0
sg179
I10
sg125
I0
sg238
I2
sg198
I14
sg226
I0
sg145
I0
sS'Sarra'
p316
I0
sg96
I2
sg48
I10
sg19
I203
sg233
I0
sS'Merry'
p317
I0
sg180
I6
sg181
I0
sg206
I0
sg22
I28
sg23
I223
sg253
I0
sg63
I54
sg25
I5
sg64
I33
sg254
I19
sg220
I0
sg182
I0
sg127
I0
sg105
I24
sg290
I14
sg176
I5
sg278
I0
sg27
I7
sg139
I0
sS'Neyela'
p318
I0
sg5
I129
sg298
I5
sg65
I81
sg183
I3
sg26
I0
sg207
I128
sg29
I149
sg255
I25
sg31
I9
sg164
I0
sg252
I0
sg24
I47
sg146
I0
sg34
I76
sg72
I0
sg217
I0
sg130
I0
sg70
I1
sg266
I19
sg221
I3
sg131
I0
sg135
I0
sg229
I6
sg222
I11
sg28
I214
sg95
I0
sg209
I8
sg223
I0
sS'Waldra'
p319
I0
sg280
I2
sa(dp320
g285
I22
sg185
I19
sg220
I0
sg253
I0
sg225
I0
sg88
I4
sg72
I0
sg58
I25
sg164
I0
sS'Desmond'
p321
I0
sg10
I43
sg55
I19
sg300
I6
sg282
I0
sg304
I0
sg134
I0
sg13
I0
sg286
I9
sg107
I0
sg160
I0
sg200
I16
sg16
I2
sg17
I6
sg48
I10
sg21
I5
sg167
I6
sg240
I3
sg211
I0
sg194
I48
sg212
I26
sg108
I0
sg201
I3
sg186
I15
sg244
I0
sg191
I0
sg287
I0
sg136
I2
sg295
I0
sg97
I21
sg195
I4
sg83
I7
sg99
I30
sS'Eldrick'
p322
I0
sg231
I0
sg66
I10
sg196
I0
sg187
I0
sg292
I5
sg69
I13
sg137
I2
sg89
I3
sg32
I11
sg109
I0
sg202
I0
sg169
I1
sg213
I3
sg214
I0
sg138
I0
sg90
I0
sg155
I25
sg36
I173
sg310
I0
sg170
I52
sg148
I26
sg110
I166
sg149
I0
sg203
I0
sg255
I28
sg111
I0
sg43
I2
sg135
I0
sg112
I0
sg156
I0
sg267
I23
sg45
I0
sg188
I0
sg57
I0
sg301
I17
sg296
I9
sg269
I16
sg270
I2
sg12
I238
sg91
I7
sg259
I28
sg288
I2
sg245
I32
sg113
I0
sg62
I29
sg232
I7
sg61
I34
sg157
I17
sg271
I2
sg39
I25
sg246
I20
sg133
I0
sg49
I10
sg114
I0
sg92
I53
sg40
I111
sg272
I22
sg47
I0
sg140
I9
sg127
I0
sg80
I0
sg65
I86
sg227
I0
sg100
I0
sg84
I59
sg290
I17
sg258
I2
sg102
I45
sg226
I0
sg28
I218
sg278
I0
sg68
I13
sg273
I7
sg274
I5
sg254
I19
sg35
I192
sg247
I0
sg38
I170
sg9
I219
sg197
I72
sg115
I0
sg18
I74
sg297
I0
sg248
I41
sg6
I139
sg249
I14
sg151
I0
sg52
I13
sg250
I1
sg14
I106
sg142
I8
sg177
I103
sg260
I22
sg75
I0
sg183
I3
sg76
I9
sg116
I0
sg312
I1
sg143
I3
sg7
I19
sg293
I16
sg93
I8
sg101
I2
sS"Yunkai'i"
p323
I0
sg11
I0
sg305
I0
sg306
I0
sg70
I2
sg29
I158
sg307
I0
sg41
I39
sg118
I0
sg126
I0
sg141
I0
sg318
I0
sg308
I27
sg215
I0
sg78
I11
sg261
I12
sg172
I0
sg204
I34
sg171
I32
sg24
I49
sg173
I55
sg152
I0
sg119
I0
sg309
I0
sg174
I0
sg20
I307
sg120
I0
sg237
I0
sg216
I0
sg158
I8
sg241
I0
sg129
I0
sg242
I0
sg205
I34
sg50
I11
sg276
I0
sg313
I0
sg283
I31
sg15
I136
sg103
I0
sg165
I0
sg264
I3
sg161
I0
sg262
I36
sg162
I5
sg279
I7
sg37
I2
sg46
I20
sg289
I0
sg150
I54
sg71
I14
sg190
I6
sg159
I0
sg144
I0
sg302
I9
sg189
I0
sg122
I0
sg257
I12
sg277
I0
sg221
I3
sg251
I0
sg218
I0
sg2
I0
sg228
I44
sg3
I40
sg4
I25
sg54
I92
sg123
I0
sg252
I0
sg86
I31
sg59
I6
sg319
I0
sg163
I15
sg168
I58
sg178
I6
sg8
I15
sg124
I0
sg235
I77
sg63
I54
sg314
I0
sg60
I36
sg311
I0
sg265
I27
sg192
I11
sg315
I0
sg95
I0
sg179
I10
sg125
I0
sg77
I38
sg198
I14
sg219
I6
sg316
I0
sg96
I2
sS'Fruit'
p324
I0
sg19
I215
sg233
I0
sg317
I0
sg180
I6
sg181
I0
sg206
I0
sg22
I28
sg23
I229
sg153
I2
sg79
I8
sg25
I5
sg64
I36
sg56
I2
sg81
I58
sg82
I4
sg182
I0
sg104
I0
sg105
I24
sg128
I0
sg176
I5
sg175
I0
sg27
I7
sg263
I39
sg5
I141
sg298
I5
sg145
I0
sg67
I12
sg26
I0
sg207
I136
sg94
I0
sg30
I44
sg31
I9
sg208
I13
sg139
I0
sg33
I20
sg146
I0
sg34
I76
sg275
I0
sg217
I0
sg130
I0
sg85
I0
sg121
I0
sg266
I19
sg42
I11
sg131
I0
sg238
I2
sg229
I6
sg222
I11
sg51
I254
sg117
I2
sg209
I8
sg223
I0
sg73
I19
sg280
I2
sa(dp325
g302
I9
sg269
I16
sg285
I22
sg185
I19
sg208
I13
sg225
I0
sg88
I4
sg189
I0
sg219
I6
sg58
I25
sg321
I0
sg10
I43
sg300
I6
sg282
I0
sg304
I0
sg134
I0
sg13
I0
sg286
I9
sg107
I0
sg15
I136
sg200
I16
sg16
I2
sg17
I6
sg324
I0
sg21
I5
sg167
I6
sg240
I3
sg211
I0
sg194
I52
sS'Deziel'
p326
I0
sg108
I0
sg201
I3
sg186
I15
sg244
I0
sg191
I0
sS'Thenn'
p327
I2
sg135
I0
sg136
I2
sg295
I0
sg97
I23
sg195
I16
sg83
I7
sg99
I30
sg322
I0
sg231
I0
sg73
I23
sg66
I12
sg196
I0
sg187
I0
sg292
I5
sg262
I38
sg137
I2
sg143
I3
sg89
I3
sg32
I11
sg109
I0
sg202
I0
sg169
I1
sg213
I3
sg214
I0
sg138
I0
sg90
I0
sg155
I25
sg36
I175
sg162
I9
sg170
I52
sg223
I0
sg148
I26
sg218
I0
sg110
I171
sg149
I0
sg203
I0
sg111
I0
sg43
I2
sg112
I0
sg156
I0
sg63
I57
sg81
I58
sg45
I0
sg93
I8
sg57
I0
sg301
I21
sg296
I9
sg55
I19
sg270
I2
sg289
I0
sg54
I94
sg12
I241
sg91
I7
sg259
I28
sg245
I36
sg113
I0
sg232
I7
sg61
I34
sg157
I17
sg271
I2
sg79
I8
sg190
I6
sg246
I27
sg133
I0
sg287
I0
sg82
I4
sg114
I0
sg92
I53
sg40
I114
sg272
I22
sg47
I0
sg140
I9
sg104
I0
sg80
I0
sg275
I0
sg161
I2
sg30
I44
sg100
I0
sg84
I63
sg128
I0
sg34
I76
sg75
I0
sg68
I13
sg77
I40
sg273
I7
sg274
I5
sg181
I0
sg35
I200
sg247
I0
sg38
I177
sg118
I0
sg115
I2
sg18
I76
sg297
I0
sg248
I43
sg215
I0
sg72
I0
sg151
I0
sg52
I13
sg49
I10
sg235
I83
sg250
I1
sg141
I0
sg142
I11
sg177
I107
sg260
I25
sg6
I141
sg67
I12
sg76
I9
sg116
I0
sg226
I0
sg7
I19
sg293
I20
sg85
I0
sg188
I0
sg101
I2
sg323
I0
sg11
I0
sg305
I0
sg306
I0
sg94
I0
sg307
I0
sS'Ellaria'
p328
I2
sg41
I39
sg197
I78
sg126
I0
sg14
I111
sg308
I27
sg102
I45
sg78
I13
sg261
I12
sg172
I0
sg51
I262
sS'Oberyn'
p329
I11
sg171
I32
sg33
I20
sg173
I55
sg152
I0
sg119
I0
sg309
I0
sg174
I0
sg20
I317
sg120
I0
sg237
I0
sg288
I5
sg158
I13
sg241
I0
sg265
I27
sg129
I0
sg242
I0
sg205
I34
sg50
I11
sg276
I0
sg283
I31
sg160
I0
sg103
I0
sg165
I2
sg264
I3
sg212
I31
sg69
I13
sg310
I0
sg279
I7
sg37
I2
sg46
I20
sg204
I34
sg150
I57
sg71
I14
sg39
I25
sg159
I0
sg144
I0
sg227
I0
sg258
I2
sg122
I0
sg62
I31
sg277
I0
sg42
I11
sg251
I0
sS'Endrew'
p330
I0
sg2
I0
sg228
I47
sg3
I40
sg4
I25
sg312
I1
sg123
I0
sg86
I33
sg59
I6
sg117
I2
sg163
I15
sg313
I0
sg178
I6
sg8
I15
sg124
I0
sg9
I233
sg263
I39
sS'Dagos'
p331
I0
sg314
I0
sg60
I36
sg311
I0
sS'Lowell'
p332
I0
sg216
I0
sg192
I14
sg252
I0
sg179
I10
sg125
I0
sg253
I0
sg198
I14
sS'Blackmont'
p333
I2
sg145
I0
sg316
I0
sg96
I2
sg48
I10
sg19
I223
sg233
I0
sg317
I0
sg180
I6
sg168
I58
sg206
I0
sg22
I28
sg23
I252
sg153
I2
sg267
I23
sg25
I5
sg64
I36
sg56
I2
sg254
I19
sg220
I0
sg182
I0
sg127
I0
sg105
I24
sg290
I19
sg176
I7
sg278
I0
sg27
I7
sg318
I0
sg5
I141
sg298
I5
sg65
I88
sS'Morgan'
p334
I0
sg183
I3
sg26
I0
sg207
I146
sg29
I177
sg255
I30
sg31
I9
sg164
I0
sg139
I0
sg24
I50
sg146
I0
sg175
I0
sg249
I19
sg217
I0
sg130
I0
sg70
I2
sg121
I0
sg266
I19
sg221
I3
sg131
I0
sS'Styr'
p335
I4
sg238
I2
sg229
I6
sg222
I11
sg28
I241
sg95
I0
sg209
I8
sg315
I0
sg257
I12
sg319
I0
sg280
I2
sa(dp336
g285
I22
sg185
I24
sg220
I0
sg225
I0
sg88
I4
sg333
I2
sg58
I25
sg50
I11
sg164
I0
sg321
I0
sg10
I43
sg300
I6
sg282
I0
sg304
I0
sg204
I47
sg134
I0
sg13
I0
sg286
I14
sg158
I13
sg107
I0
sg160
I0
sg200
I16
sg16
I2
sg17
I6
sg48
I10
sg21
I5
sg267
I23
sg167
I6
sg240
I3
sg211
I0
sg194
I60
sg326
I0
sg108
I0
sg201
I3
sg186
I15
sg244
I0
sg191
I0
sg327
I2
sg287
I0
sg136
I2
sg295
I2
sg97
I23
sg195
I16
sg83
I7
sg99
I30
sg322
I0
sg231
I0
sg66
I12
sg196
I0
sg187
I0
sg292
I5
sg69
I13
sg137
I2
sg89
I3
sg32
I11
sg109
I0
sg202
I0
sg169
I7
sg213
I3
sg214
I0
sg138
I0
sg90
I0
sg155
I25
sg22
I32
sg36
I175
sg310
I0
sg170
I62
sg148
I26
sg110
I178
sg149
I0
sg203
I0
sg153
I2
sg111
I0
sg43
I2
sg112
I0
sg146
I0
sg156
I0
sg79
I8
sg45
I0
sg188
I0
sg57
I0
sg301
I21
sg189
I0
sg269
I16
sg270
I2
sg175
I0
sg12
I247
sg91
I7
sg259
I28
sS'Dwarf'
p337
I0
sg113
I0
sg232
I7
sg61
I34
sg157
I17
sg271
I2
sg39
I27
sg246
I27
sg133
I0
sg135
I0
sg255
I30
sg114
I0
sg92
I55
sg40
I114
sg272
I22
sg47
I0
sg140
I9
sg127
I0
sg80
I0
sg5
I151
sg65
I94
sg227
I0
sg100
I0
sg84
I69
sg290
I19
sg258
I2
sg226
I0
sg249
I19
sg68
I13
sg273
I7
sg274
I5
sg254
I19
sg35
I205
sg28
I249
sg247
I0
sg38
I184
sg9
I233
sg197
I78
sg115
I2
sg18
I76
sg257
I27
sg297
I0
sg248
I43
sg6
I141
sg275
I0
sg151
I0
sg52
I13
sg49
I10
sg330
I0
sg250
I1
sg14
I111
sg142
I11
sg177
I113
sg260
I29
sg75
I0
sg183
I3
sg76
I9
sg116
I0
sg312
I1
sg143
I3
sg7
I19
sg293
I24
sg93
I8
sg101
I2
sg323
I0
sg11
I0
sg305
I0
sg306
I0
sg70
I2
sg29
I177
sg307
I0
sg328
I2
sg41
I39
sg118
I0
sg126
I0
sg141
I0
sg168
I58
sg308
I28
sS'Mace'
p338
I4
sg215
I0
sg78
I13
sg261
I15
sg172
I0
sg329
I13
sg171
I32
sg24
I52
sg173
I57
sg152
I0
sg119
I0
sg309
I2
sg174
I0
sg20
I348
sg120
I0
sg237
I0
sg288
I5
sg102
I45
sg241
I0
sg129
I0
sg242
I0
sg205
I34
sS'Axell'
p339
I0
sg276
I0
sg313
I0
sg283
I40
sg15
I156
sg103
I0
sg165
I2
sg161
I2
sg262
I42
sg162
I9
sg279
I7
sg37
I2
sg46
I20
sg289
I0
sg150
I64
sg71
I14
sg216
I0
sg190
I6
sg212
I31
sg144
I0
sg302
I9
sg296
I9
sg122
I0
sg62
I31
sg277
I0
sg221
I3
sg251
I0
sg218
I0
sg2
I0
sg228
I47
sg3
I40
sg4
I25
sg54
I96
sg123
I0
sg86
I33
sg55
I21
sg117
I2
sg319
I0
sg163
I15
sg264
I3
sg178
I6
sg8
I15
sg124
I0
sg235
I90
sg331
I0
sg314
I0
sg60
I36
sg311
I0
sg332
I0
sg265
I30
sg192
I16
sg252
I0
sg95
I0
sg179
I10
sg125
I0
sg77
I40
sg198
I14
sg219
I6
sg316
I0
sg96
I2
sg324
I0
sg19
I250
sg233
I0
sg317
I0
sg180
I6
sg181
I0
sg206
I0
sg59
I6
sg23
I256
sg253
I0
sg63
I57
sg25
I5
sg64
I36
sg56
I2
sg81
I58
sg82
I4
sg182
I0
sg104
I0
sg105
I24
sg128
I0
sg176
I9
sg278
I0
sg27
I7
sg139
I0
sg263
I43
sg159
I0
sg298
I5
sg145
I0
sg334
I0
sg67
I12
sg26
I0
sg207
I152
sg94
I0
sg30
I44
sg31
I9
sg208
I13
sg245
I36
sg33
I20
sg318
I0
sg34
I76
sg72
I0
sg217
I0
sg130
I0
sg85
I0
sg121
I0
sg266
I19
sg42
I13
sg131
I0
sg335
I4
sg238
I2
sg229
I8
sg222
I11
sg51
I265
sS'Tansy'
p340
I0
sg209
I8
sg315
I0
sg223
I0
sg73
I23
sg280
I2
sa(dp341
g198
I14
sg269
I16
sg285
I22
sg185
I24
sg208
I13
sg225
I0
sg88
I4
sg296
I9
sg72
I0
sg219
I6
sg58
I25
sg339
I0
sg321
I0
sg10
I43
sg300
I6
sg282
I0
sg304
I0
sg134
I0
sg13
I2
sg286
I16
sg107
I0
sg15
I156
sg200
I16
sg16
I2
sg17
I6
sg324
I0
sg21
I5
sg167
I6
sg240
I3
sg211
I0
sg194
I60
sg326
I0
sg108
I0
sg201
I3
sg186
I15
sg244
I0
sg191
I0
sS"Olly's"
p342
I0
sg135
I0
sg136
I2
sg295
I2
sg97
I25
sg195
I16
sg83
I7
sg99
I30
sg322
I0
sg231
I0
sg73
I23
sg66
I12
sg196
I0
sg187
I0
sg292
I5
sg262
I42
sg137
I2
sg143
I3
sg89
I3
sg32
I11
sg109
I0
sg202
I0
sg169
I7
sg213
I3
sg214
I0
sg138
I0
sg90
I0
sg155
I25
sg114
I0
sg36
I175
sg162
I9
sg170
I62
sg148
I26
sS'Olly'
p343
I0
sg110
I189
sg149
I0
sg203
I0
sg111
I0
sS'Whore'
p344
I0
sg43
I2
sg112
I0
sg156
I0
sg79
I8
sg81
I58
sg45
I0
sg93
I8
sg57
I0
sg301
I23
sg189
I0
sS'Farmer'
p345
I0
sg270
I2
sg289
I0
sg12
I247
sg91
I7
sg259
I28
sS'Slave'
p346
I0
sg337
I0
sg113
I0
sg62
I33
sg232
I7
sg61
I34
sg157
I17
sg271
I2
sg190
I6
sg246
I29
sg133
I0
sg287
I0
sg82
I4
sS'Sally'
p347
I0
sg131
I0
sg92
I55
sg40
I114
sg272
I22
sg47
I0
sg140
I9
sg104
I0
sg80
I0
sg67
I12
sg302
I9
sg30
I44
sg100
I0
sg84
I72
sg128
I0
sg75
I0
sg278
I0
sg68
I13
sg273
I7
sS'Hizdahr'
p348
I0
sg8
I15
sg35
I215
sg247
I0
sg38
I194
sg118
I0
sg115
I2
sg18
I77
sg251
I0
sg297
I0
sg248
I43
sg253
I0
sS'Guymon'
p349
I0
sg151
I0
sg52
I13
sg49
I10
sg235
I92
sg250
I1
sg141
I0
sg142
I11
sg177
I115
sg260
I29
sg6
I141
sg183
I3
sg76
I9
sg116
I0
sg312
I1
sg226
I0
sg7
I19
sg293
I29
sg85
I0
sg188
I0
sg101
I2
sg323
I0
sg11
I0
sg158
I13
sg306
I0
sg94
I0
sg307
I0
sg328
I4
sg41
I39
sg197
I78
sg126
I0
sg14
I111
sg318
I0
sg308
I28
sg217
I0
sg338
I4
sg215
I0
sg78
I13
sg261
I15
sg172
I0
sg51
I266
sg204
I47
sg171
I36
sg33
I20
sg173
I60
sg59
I6
sg152
I0
sg274
I5
sg309
I2
sg174
I0
sg20
I370
sg120
I0
sg175
I0
sg288
I7
sg102
I45
sS"Mole's"
p350
I0
sg265
I30
sg129
I0
sg242
I0
sg205
I34
sg50
I11
sg276
I0
sg313
I0
sg283
I40
sg160
I0
sg103
I0
sg165
I2
sg264
I3
sg161
I2
sg69
I13
sg310
I0
sg305
I0
sg37
I2
sg46
I22
sg329
I22
sg150
I67
sg71
I16
sg39
I27
sg212
I31
sg144
I0
sg227
I0
sg258
I2
sg122
I0
sg257
I27
sg277
I0
sg42
I16
sg241
I0
sg330
I0
sg2
I0
sg228
I47
sg3
I40
sg4
I25
sg5
I151
sg123
I0
sg86
I33
sg55
I21
sS'Oznak'
p351
I0
sg163
I15
sg168
I62
sg178
I6
sg9
I234
sg124
I0
sg327
I2
sg263
I43
sg331
I0
sg314
I0
sg60
I36
sg311
I0
sg332
I0
sg216
I0
sg192
I19
sg252
I0
sg95
I0
sg218
I0
sg125
I0
sg77
I41
sg119
I0
sg333
I2
sg145
I0
sg316
I0
sg96
I2
sg48
I10
sg19
I260
sg233
I0
sg317
I0
sg180
I6
sg340
I0
sg181
I0
sg206
I0
sg22
I32
sg23
I258
sg153
I2
sg267
I23
sg25
I5
sg64
I36
sg56
I2
sg254
I19
sg220
I0
sg182
I0
sg127
I0
sg105
I24
sg290
I19
sg176
I14
sg237
I0
sg27
I7
sg245
I40
sg54
I96
sg159
I0
sg298
I5
sg65
I97
sg334
I0
sg275
I0
sg26
I0
sg207
I154
sg29
I185
sg255
I30
sg31
I9
sg164
I0
sg139
I0
sg24
I52
sg146
I0
sg34
I76
sg249
I19
sg279
I7
sg130
I0
sg70
I2
sg121
I0
sg266
I19
sg221
I3
sg179
I10
sg335
I4
sg238
I2
sg229
I8
sg222
I11
sg28
I257
sg117
I2
sg209
I8
sg315
I0
sg63
I57
sg223
I0
sg319
I0
sg280
I4
sa(dp352
g285
I22
sg185
I24
sg220
I0
sg225
I0
sg22
I32
sg88
I4
sg333
I2
sg58
I25
sg50
I11
sg164
I0
sg269
I16
sg10
I50
sg55
I21
sg300
I6
sg282
I0
sg304
I0
sg134
I0
sg13
I2
sg286
I16
sg107
I0
sg160
I0
sg200
I16
sg16
I2
sg17
I6
sg48
I10
sg21
I5
sg267
I23
sg167
I6
sg240
I3
sg211
I0
sg194
I69
sg326
I0
sg108
I0
sg201
I3
sg186
I15
sg244
I0
sg191
I0
sg342
I0
sg287
I0
sg136
I2
sg295
I2
sg179
I10
sg97
I25
sg195
I16
sg83
I7
sg99
I30
sg322
I0
sg231
I0
sg66
I14
sg196
I0
sg187
I0
sg292
I5
sg69
I13
sg137
I2
sg89
I3
sg32
I11
sg109
I0
sg202
I0
sg169
I7
sg213
I3
sg214
I0
sg138
I0
sg90
I0
sg155
I25
sg347
I0
sg36
I175
sg310
I0
sg170
I62
sg223
I0
sg148
I26
sg343
I2
sg110
I189
sg149
I0
sg203
I0
sg280
I8
sg255
I32
sg111
I0
sg344
I0
sg43
I2
sg112
I0
sg254
I19
sg156
I0
sg329
I22
sg265
I31
sg45
I0
sg188
I0
sg57
I0
sg301
I23
sg296
I9
sg321
I0
sg270
I2
sg349
I0
sg54
I96
sg12
I247
sg91
I7
sg259
I28
sg346
I0
sg337
I0
sg113
I0
sg232
I7
sg61
I36
sg157
I17
sg271
I2
sg39
I29
sg246
I29
sg133
I0
sg135
I0
sg114
I0
sg319
I0
sg92
I55
sg40
I115
sg272
I22
sg47
I0
sg140
I9
sg127
I0
sg80
I0
sg275
I0
sg65
I97
sg227
I0
sg100
I0
sg84
I74
sg290
I21
sg258
I2
sg226
I0
sg249
I19
sg68
I13
sg77
I43
sg273
I7
sg348
I0
sg181
I0
sg241
I0
sg35
I225
sg28
I269
sg247
I0
sg38
I202
sg9
I236
sg197
I81
sg115
I2
sg18
I77
sg237
I0
sg297
I0
sg248
I45
sg6
I141
sg72
I0
sg151
I0
sg52
I13
sg49
I10
sg330
I0
sg250
I1
sg14
I111
sg142
I11
sg305
I0
sg260
I33
sg75
I0
sg183
I3
sg76
I9
sg116
I0
sg143
I3
sg7
I19
sg293
I30
sg93
I8
sg101
I2
sg323
I0
sg11
I0
sg158
I13
sg306
I0
sg70
I2
sg29
I185
sg307
I0
sg328
I4
sg119
I0
sg118
I0
sg126
I0
sg141
I0
sg308
I28
sg338
I4
sg215
I0
sg78
I15
sg261
I18
sg172
I0
sg204
I47
sg171
I38
sg24
I54
sg173
I60
sg152
I0
sg274
I5
sg309
I2
sg174
I0
sg20
I385
sg120
I0
sg175
I2
sg288
I7
sg102
I45
sg350
I0
sg129
I0
sg242
I0
sg205
I34
sg339
I0
sg276
I0
sg283
I40
sg15
I163
sg103
I0
sg165
I2
sg264
I3
sg161
I2
sg262
I42
sS'Ser'
p353
I2
sg162
I9
sg279
I7
sg37
I2
sg46
I28
sg289
I0
sg150
I67
sg71
I19
sg190
I6
sg212
I31
sg144
I0
sg302
I9
sg189
I0
sg122
I0
sg62
I35
sg277
I0
sg221
I3
sg251
I0
sg177
I115
sg2
I0
sg228
I47
sg3
I40
sg4
I25
sg312
I1
sg123
I0
sg86
I33
sg345
I0
sg117
I2
sg351
I0
sg163
I15
sg313
I0
sg178
I6
sg8
I15
sg124
I0
sg235
I95
sg263
I48
sg331
I0
sg314
I0
sg206
I0
sg60
I36
sg311
I0
sg332
I0
sg216
I0
sg192
I21
sg252
I0
sg218
I0
sg125
I0
sg253
I0
sg198
I14
sg219
I6
sg316
I0
sg96
I2
sg324
I0
sg5
I151
sg233
I0
sg317
I0
sg180
I6
sg340
I0
sg168
I70
sg19
I267
sg59
I6
sg23
I271
sg153
I2
sg79
I8
sg25
I5
sg64
I36
sg56
I2
sg81
I58
sg82
I4
sg182
I0
sg104
I0
sg105
I24
sg128
I0
sg176
I16
sg278
I0
sg27
I7
sg139
I0
sg318
I0
sg159
I0
sg298
I5
sg145
I0
sg334
I0
sg67
I12
sg26
I0
sg207
I160
sg94
I0
sg30
I44
sg31
I9
sg208
I13
sg245
I40
sg33
I20
sg146
I0
sg34
I76
sg41
I39
sg217
I0
sg130
I0
sg85
I0
sg121
I0
sg266
I19
sg42
I22
sg131
I0
sg335
I4
sg238
I2
sg327
I2
sg222
I11
sg51
I266
sg95
I0
sg209
I8
sg315
I0
sg63
I59
sg257
I27
sg73
I25
sg229
I8
sS'Morag'
p354
I0
sa(dp355
g285
I22
sg185
I24
sg208
I13
sg225
I0
sg88
I4
sg189
I0
sg219
I6
sg58
I25
sg249
I19
sg269
I16
sg10
I50
sg300
I6
sg282
I0
sg304
I0
sg51
I266
sg289
I0
sg134
I0
sg13
I2
sg286
I16
sg107
I0
sg15
I170
sg200
I16
sg16
I2
sg17
I6
sg324
I0
sg21
I5
sg167
I6
sg240
I3
sg211
I0
sg194
I71
sg326
I0
sg108
I0
sg201
I3
sg186
I15
sg244
I0
sg191
I0
sg342
I0
sg135
I0
sg136
I2
sg295
I2
sg97
I38
sg195
I16
sg83
I7
sg99
I30
sg322
I0
sg231
I0
sg73
I25
sg66
I14
sg196
I0
sg187
I0
sg292
I5
sg262
I42
sg137
I2
sg143
I3
sg89
I7
sg32
I11
sg109
I0
sg202
I0
sg169
I7
sg213
I3
sg214
I0
sg138
I0
sg90
I0
sg155
I25
sg114
I0
sg36
I175
sg162
I9
sg170
I62
sg148
I26
sg343
I2
sg110
I192
sg149
I0
sg203
I0
sg177
I115
sg229
I8
sg111
I0
sg344
I0
sg43
I2
sg112
I0
sg146
I0
sg156
I0
sg267
I23
sg81
I58
sg45
I0
sg93
I8
sg57
I0
sg301
I25
sg296
I9
sS'Donnel'
p356
I0
sg55
I21
sg270
I2
sg175
I2
sg12
I247
sg91
I7
sg259
I28
sg346
I0
sg337
I0
sg113
I0
sg232
I7
sg61
I36
sg157
I17
sg19
I269
sg271
I2
sg79
I8
sg190
I6
sg246
I29
sg133
I0
sg287
I0
sg82
I4
sg347
I0
sg92
I55
sg40
I117
sg272
I22
sg47
I0
sg140
I9
sg104
I0
sg80
I0
sg257
I27
sg302
I9
sg30
I44
sg100
I0
sg84
I74
sg128
I0
sg75
I0
sg274
I5
sg68
I13
sg273
I7
sg348
I0
sg339
I0
sg35
I245
sg247
I0
sg38
I207
sg118
I0
sg115
I2
sg18
I79
sg218
I0
sg297
I0
sg248
I47
sg349
I0
sg151
I0
sg52
I13
sg49
I10
sg235
I96
sg250
I1
sg141
I0
sg142
I13
sg153
I2
sg305
I0
sg260
I33
sg6
I141
sg67
I14
sg76
I9
sg116
I0
sg312
I1
sg226
I0
sg7
I19
sg293
I33
sg85
I0
sg188
I0
sg101
I2
sg323
I0
sg11
I0
sg158
I13
sg306
I0
sg94
I0
sg307
I0
sg328
I4
sg41
I39
sg197
I88
sg126
I0
sg14
I114
sg168
I75
sg308
I28
sg338
I4
sg215
I0
sg321
I0
sg261
I21
sg172
I0
sg78
I15
sg329
I25
sg171
I38
sg33
I20
sg173
I60
sg59
I6
sg152
I0
sg119
I0
sg309
I2
sg174
I0
sg20
I389
sg120
I0
sg237
I0
sg288
I7
sg102
I45
sg241
I0
sg129
I0
sg242
I0
sg205
I34
sg50
I11
sg276
I0
sg313
I0
sg283
I40
sg160
I0
sg103
I0
sg165
I2
sg161
I2
sg69
I13
sg353
I3
sg310
I0
sg350
I0
sg279
I7
sg37
I2
sg46
I31
sg204
I47
sg150
I67
sg71
I19
sg39
I32
sg212
I31
sg144
I0
sg227
I0
sg258
I2
sg122
I0
sg62
I46
sg277
I0
sg42
I25
sg251
I0
sg330
I0
sg2
I0
sg228
I47
sg3
I40
sg4
I25
sg54
I96
sg123
I0
sg86
I33
sg345
I0
sg351
I0
sg163
I15
sg264
I3
sg178
I6
sg278
I0
sg8
I15
sg124
I0
sg9
I239
sg331
I0
sg314
I0
sg60
I36
sg311
I0
sg332
I0
sg216
I0
sg192
I28
sg252
I0
sg95
I0
sg179
I10
sg125
I0
sg77
I43
sg198
I14
sg333
I2
sg145
I0
sg316
I0
sg96
I2
sg48
I10
sg5
I151
sg233
I0
sg317
I0
sg180
I6
sg340
I0
sg181
I0
sg206
I0
sg22
I32
sg23
I286
sg253
I0
sg265
I35
sg25
I5
sg64
I36
sg56
I2
sg254
I19
sg220
I0
sg182
I0
sg127
I0
sg105
I24
sg290
I21
sg176
I16
sg72
I0
sg27
I7
sg245
I42
sg263
I56
sg159
I0
sg298
I5
sg65
I97
sg334
I0
sg183
I3
sg26
I0
sg207
I163
sg29
I188
sg255
I32
sg31
I11
sg164
I0
sg139
I0
sg24
I54
sg318
I0
sg34
I76
sg275
I0
sg217
I0
sg130
I0
sg70
I2
sg121
I0
sg266
I19
sg221
I3
sg131
I0
sg335
I4
sg238
I2
sg327
I2
sg222
I11
sg28
I269
sg117
I2
sg209
I8
sg315
I0
sg63
I61
sg223
I0
sg319
I0
sg280
I17
sg354
I0
sa(dp357
g198
I14
sg285
I22
sg185
I24
sg220
I0
sg253
I0
sg225
I0
sg88
I4
sg72
I0
sg333
I2
sg58
I25
sg50
I11
sg164
I0
sg269
I16
sg10
I50
sg300
I6
sg282
I0
sg304
I0
sg204
I47
sg134
I0
sg13
I2
sg286
I16
sS'Tycho'
p358
I2
sg160
I0
sg200
I16
sg16
I2
sg17
I6
sg48
I10
sg21
I5
sg167
I6
sg240
I3
sg211
I0
sg194
I71
sg326
I0
sg108
I0
sg201
I3
sg186
I24
sg244
I0
sg191
I0
sg342
I0
sg287
I0
sg136
I2
sg295
I4
sg97
I38
sg195
I16
sg83
I7
sg99
I30
sg322
I0
sg231
I0
sg66
I14
sg196
I0
sg187
I0
sg292
I5
sg69
I13
sg137
I2
sg89
I7
sg32
I11
sg109
I0
sg202
I0
sg169
I7
sg213
I3
sg214
I0
sg138
I0
sg90
I0
sg155
I25
sg347
I0
sg36
I175
sg310
I0
sg170
I62
sg148
I26
sg343
I2
sg110
I207
sg149
I0
sg203
I0
sg255
I33
sg345
I0
sg111
I0
sg344
I0
sg43
I2
sg112
I0
sg156
I0
sg79
I8
sg45
I0
sg188
I0
sg57
I0
sg301
I25
sg189
I0
sg356
I0
sg55
I23
sg270
I2
sg349
I0
sg12
I247
sg91
I7
sg259
I28
sg346
I0
sg337
I0
sg113
I0
sg62
I46
sg232
I7
sg61
I36
sg157
I17
sg271
I2
sg39
I32
sg246
I29
sg133
I0
sg135
I0
sg114
I0
sg319
I0
sg92
I55
sg40
I117
sg272
I22
sg47
I0
sg140
I9
sg127
I0
sg80
I0
sg275
I0
sg65
I103
sg227
I0
sg100
I0
sg84
I74
sg290
I21
sg327
I2
sg258
I2
sg102
I45
sg226
I0
sg28
I275
sg278
I0
sg68
I13
sg273
I7
sg274
I5
sg254
I19
sg35
I247
sg247
I0
sg38
I210
sS'Goatherd'
p359
I0
sg9
I245
sg197
I88
sg115
I2
sg18
I79
sg297
I0
sg248
I47
sg6
I141
sg249
I19
sg151
I0
sg52
I13
sg49
I10
sg330
I0
sg250
I1
sg14
I114
sg142
I16
sg218
I0
sg260
I33
sg75
I0
sg183
I3
sg76
I9
sg116
I0
sg143
I3
sg7
I19
sg293
I33
sg107
I0
sg93
I8
sg101
I2
sg323
I0
sg11
I0
sg305
I0
sg306
I0
sg70
I2
sg29
I188
sg307
I0
sg328
I4
sg118
I0
sg126
I0
sg141
I0
sg318
I0
sg308
I28
sg338
I6
sg215
I0
sg321
I0
sg261
I21
sg172
I0
sg78
I15
sg329
I27
sg171
I38
sg24
I56
sg173
I64
sg159
I0
sg152
I0
sg348
I2
sg309
I2
sg174
I0
sg20
I409
sg120
I0
sg175
I2
sg51
I268
sg158
I15
sg241
I0
sg265
I35
sg129
I0
sg242
I0
sg205
I34
sg339
I0
sg276
I0
sg313
I0
sg283
I42
sg15
I170
sg103
I0
sg165
I2
sg264
I3
sg161
I2
sg262
I44
sg353
I8
sg162
I9
sg350
I0
sg279
I7
sg37
I2
sg46
I31
sg289
I0
sg150
I69
sg71
I19
sg190
I8
sg212
I31
sg144
I0
sg302
I9
sg296
I9
sg122
I0
sg257
I36
sg277
I0
sg221
I3
sg251
I0
sg177
I123
sg2
I0
sg228
I47
sg3
I40
sg4
I25
sg312
I1
sg123
I0
sg86
I33
sg59
I6
sg117
I2
sg351
I0
sg124
I0
sg163
I15
sg168
I75
sg178
I6
sg8
I15
sg288
I7
sg235
I98
sg263
I56
sg331
I0
sg314
I0
sg60
I36
sg311
I0
sg332
I0
sg216
I0
sg192
I28
sg252
I0
sg179
I10
sg125
I0
sg77
I43
sg119
I0
sg219
I6
sg316
I0
sg96
I2
sg324
I0
sg19
I275
sg233
I0
sg317
I0
sg180
I6
sg340
I0
sg181
I0
sg206
I0
sg22
I32
sg23
I286
sg153
I2
sg267
I23
sg25
I5
sg64
I38
sg56
I2
sg81
I58
sg82
I4
sg182
I0
sg104
I0
sg105
I24
sg128
I0
sg176
I16
sg237
I0
sg27
I7
sg139
I0
sg54
I96
sg5
I161
sg298
I5
sg145
I0
sg334
I0
sg67
I14
sg26
I0
sg207
I164
sg94
I0
sg30
I44
sg31
I11
sg208
I13
sg245
I42
sg33
I20
sg146
I0
sg34
I76
sg41
I39
sg217
I0
sg130
I0
sg85
I0
sg121
I0
sg266
I19
sg42
I26
sg131
I0
sg335
I4
sg238
I2
sg229
I8
sg222
I11
sS'Lhara'
p360
I0
sg95
I0
sg209
I8
sg315
I0
sg63
I61
sg223
I0
sg73
I25
sg280
I17
sg354
I0
sa(dp361
g285
I22
sg185
I24
sg208
I13
sg225
I0
sg288
I7
sg88
I4
sg296
I9
sg219
I6
sg58
I25
sg249
I19
sg269
I16
sg10
I50
sg122
I0
sg300
I6
sg282
I0
sg304
I0
sg289
I0
sg134
I0
sg13
I2
sg286
I20
sg358
I2
sg15
I170
sg200
I16
sg16
I2
sg17
I6
sg324
I0
sg21
I5
sg267
I23
sg167
I6
sg240
I3
sg211
I0
sg194
I71
sg326
I0
sg108
I0
sg201
I3
sg186
I24
sg244
I0
sg191
I0
sg342
I0
sg135
I0
sg136
I2
sg295
I4
sg97
I47
sg195
I16
sg83
I7
sg99
I30
sg322
I0
sg231
I0
sg73
I25
sg66
I16
sg196
I0
sg187
I0
sg292
I5
sg262
I44
sg137
I2
sg143
I3
sg89
I15
sg32
I11
sg109
I0
sg202
I0
sg169
I14
sg213
I3
sg214
I0
sg138
I0
sg90
I0
sg155
I25
sg114
I0
sg36
I177
sg162
I9
sg170
I66
sg223
I0
sg148
I26
sg343
I2
sg110
I209
sg149
I0
sg203
I0
sg177
I124
sg111
I0
sg344
I0
sg43
I2
sg112
I0
sg156
I2
sg265
I35
sg81
I58
sg45
I0
sg93
I8
sg57
I0
sg301
I33
sg189
I0
sg356
I0
sg345
I0
sg270
I2
sg349
I0
sg54
I96
sg12
I247
sg91
I7
sg259
I28
sg346
I0
sg337
I0
sg113
I0
sg232
I7
sg61
I36
sg157
I17
sg271
I2
sg190
I8
sg246
I29
sg133
I0
sg287
I0
sg82
I4
sg347
I0
sg92
I55
sg40
I118
sg272
I22
sg47
I0
sg140
I9
sg104
I0
sg80
I0
sg302
I9
sg30
I44
sg100
I0
sg84
I77
sg128
I0
sg75
I0
sg68
I13
sg77
I43
sg273
I7
sg274
I5
sg181
I0
sg8
I15
sg339
I0
sg35
I263
sg247
I0
sg38
I219
sg359
I0
sg118
I0
sg115
I2
sg18
I87
sg237
I0
sg297
I0
sg248
I47
sg215
I0
sg72
I0
sg151
I0
sg52
I13
sg49
I10
sg235
I102
sg250
I1
sg141
I0
sg142
I16
sg218
I0
sg209
I8
sg260
I33
sg6
I141
sg67
I14
sg76
I9
sg116
I0
sg226
I0
sg7
I19
sg360
I0
sg293
I36
sg107
I0
sg85
I0
sg188
I0
sg101
I2
sg323
I0
sg11
I0
sg305
I0
sg306
I0
sg94
I0
sg307
I0
sg328
I4
sg119
I0
sg41
I39
sg197
I94
sg126
I0
sg14
I121
sg308
I28
sg338
I6
sg102
I45
sg321
I0
sg261
I21
sg172
I0
sg78
I15
sg204
I47
sg171
I38
sg33
I20
sg173
I64
sg152
I0
sg348
I4
sg309
I2
sg174
I0
sg20
I426
sg120
I0
sg175
I2
sg51
I269
sg158
I15
sg241
I0
sg129
I0
sg242
I0
sg205
I34
sg50
I11
sg276
I0
sg283
I42
sg160
I4
sg103
I0
sg165
I2
sg264
I3
sg161
I2
sg69
I13
sg353
I10
sg310
I0
sg350
I0
sg279
I7
sg37
I2
sg46
I31
sg329
I37
sg150
I69
sg71
I19
sg39
I32
sg159
I0
sg144
I0
sg227
I0
sg258
I2
sg212
I31
sg62
I53
sg277
I0
sg42
I26
sg251
I0
sg330
I0
sg2
I0
sg228
I47
sg3
I40
sS'Dying'
p362
I0
sg312
I1
sg123
I0
sg86
I38
sg55
I23
sg351
I0
sg163
I19
sg313
I0
sg178
I6
sg9
I252
sg124
I0
sg327
I2
sg263
I56
sg331
I0
sg314
I0
sg206
I0
sg60
I36
sg311
I0
sg332
I0
sg216
I0
sg192
I33
sg252
I0
sg95
I0
sg179
I10
sg125
I0
sg253
I0
sg198
I14
sg333
I2
sg145
I0
sg316
I0
sg96
I2
sg48
I10
sg4
I25
sg233
I0
sg317
I0
sg180
I6
sg340
I0
sg168
I77
sg19
I275
sg59
I6
sg23
I290
sg153
I2
sg79
I8
sg25
I5
sg64
I38
sg56
I2
sg254
I19
sg220
I0
sg182
I0
sg127
I0
sg105
I24
sg290
I21
sg176
I16
sg278
I0
sg27
I7
sg245
I44
sg318
I0
sg5
I161
sg298
I5
sg65
I103
sg334
I0
sg183
I3
sg26
I0
sg207
I167
sg29
I194
sg255
I33
sg31
I11
sg164
I0
sg139
I0
sg24
I56
sg146
I0
sg34
I76
sg275
I0
sg217
I0
sg130
I0
sg70
I2
sg121
I0
sg266
I19
sg221
I3
sg131
I0
sg335
I4
sg238
I2
sg229
I8
sg222
I11
sg28
I281
sg117
I2
sg22
I32
sg315
I0
sg63
I61
sg257
I36
sg319
I0
sg280
I17
sg354
I0
sa(dp363
g285
I22
sg185
I24
sg220
I0
sg130
I0
sg225
I0
sg22
I32
sg88
I4
sg333
I2
sg58
I25
sg50
I11
sg164
I0
sg269
I16
sg10
I52
sg300
I6
sg282
I0
sg304
I0
sg134
I0
sg13
I2
sg286
I20
sg158
I15
sg358
I2
sg160
I4
sg200
I16
sg16
I2
sg17
I6
sg48
I10
sg21
I5
sg167
I6
sg240
I3
sg211
I0
sg194
I71
sg326
I0
sg108
I0
sg201
I3
sg186
I24
sg244
I0
sg191
I0
sg342
I0
sg135
I0
sg136
I2
sg295
I4
sg97
I54
sg195
I16
sg83
I7
sg99
I30
sg322
I0
sS'Adrack'
p364
I0
sg231
I0
sg66
I16
sg196
I0
sg187
I0
sg292
I5
sg69
I13
sg137
I2
sg89
I16
sg32
I11
sg109
I0
sg202
I0
sg169
I14
sg213
I3
sg214
I0
sg138
I0
sg90
I0
sg155
I25
sg347
I0
sg36
I177
sg310
I0
sg170
I66
sg148
I26
sg343
I2
sg110
I215
sg149
I0
sg203
I0
sg280
I17
sg153
I2
sg111
I0
sg344
I0
sg43
I2
sg112
I0
sg146
I0
sg156
I2
sg329
I53
sg265
I35
sg45
I0
sg188
I0
sg57
I0
sg301
I33
sg296
I9
sg356
I2
sg345
I0
sg270
I2
sS'Mully'
p365
I0
sg349
I0
sg12
I247
sg91
I7
sg259
I28
sg346
I0
sg337
I0
sg113
I0
sg232
I7
sg61
I36
sg157
I17
sg19
I275
sg271
I2
sg79
I8
sg39
I32
sg246
I31
sg133
I0
sS'Kegs'
p366
I0
sg255
I42
sg114
I0
sg319
I0
sg92
I55
sg40
I118
sg272
I22
sg47
I0
sS'Vance'
p367
I2
sg127
I0
sg80
I0
sg183
I3
sg275
I0
sg65
I105
sg257
I43
sg227
I0
sg100
I0
sg84
I77
sg290
I30
sg258
I2
sg226
I0
sg28
I290
sg278
I0
sg68
I13
sg273
I7
sg274
I5
sg254
I19
sg35
I269
sg247
I0
sg38
I220
sg359
I0
sg9
I263
sg197
I94
sg115
I2
sg18
I89
sg212
I31
sg297
I0
sg248
I52
sg215
I0
sg6
I143
sg249
I19
sg151
I0
sg52
I13
sg49
I10
sg330
I0
sg250
I1
sg14
I131
sg142
I16
sg218
I0
sg260
I33
sg75
I0
sg348
I4
sg76
I9
sg116
I0
sg312
I1
sg143
I3
sg7
I19
sg293
I40
sg107
I0
sg93
I8
sg101
I2
sS'Ralf'
p368
I2
sg11
I0
sg305
I0
sg306
I0
sg70
I2
sg29
I197
sg307
I0
sg328
I6
sg41
I39
sg118
I0
sg126
I0
sg141
I0
sg168
I78
sg308
I28
sg338
I6
sg287
I0
sg321
I0
sg261
I21
sg172
I0
sg78
I15
sg204
I49
sg171
I43
sg24
I56
sg173
I64
sg152
I0
sg119
I0
sg309
I2
sg174
I0
sg20
I438
sg120
I0
sg237
I0
sg60
I36
sg288
I7
sg102
I45
sg241
I0
sg129
I0
sg242
I0
sg205
I34
sg117
I2
sg339
I0
sg276
I0
sg313
I0
sg283
I45
sg15
I170
sg103
I0
sg165
I2
sg161
I2
sg262
I44
sg353
I15
sg162
I9
sg350
I0
sg279
I7
sg37
I2
sg46
I31
sg289
I0
sg150
I69
sg71
I21
sg190
I8
sg159
I0
sg144
I0
sg302
I9
sg189
I0
sg122
I0
sg62
I55
sg277
I0
sg221
I3
sg251
I0
sg177
I124
sg2
I0
sg228
I50
sg3
I40
sg362
I0
sg54
I96
sg123
I0
sg86
I51
sg55
I23
sg323
I0
sg351
I0
sg124
I0
sg163
I19
sg264
I3
sg178
I6
sg8
I15
sg140
I9
sg235
I103
sg331
I0
sg314
I0
sS'Anya'
p369
I2
sg311
I0
sg332
I0
sg216
I0
sg192
I33
sg252
I0
sg179
I10
sg125
I0
sg77
I43
sg198
I14
sg222
I11
sg219
I6
sg316
I0
sg96
I2
sg324
I0
sg4
I27
sg233
I0
sg317
I0
sg180
I6
sg340
I0
sg181
I0
sg206
I0
sg59
I8
sg23
I293
sg253
I0
sg267
I23
sS'Daemon'
p370
I0
sg25
I5
sg64
I40
sg56
I2
sg81
I58
sg82
I4
sg182
I0
sg104
I0
sg105
I27
sg128
I0
sg176
I16
sg175
I2
sg27
I7
sg139
I0
sg263
I56
sg5
I165
sg298
I5
sg145
I0
sg334
I0
sg67
I14
sg26
I0
sg207
I173
sg94
I0
sg30
I44
sg31
I11
sg208
I13
sg245
I46
sg33
I20
sg318
I0
sg34
I78
sg72
I0
sg217
I0
sS'Yohn'
p371
I2
sg85
I0
sg121
I0
sg266
I19
sg42
I26
sg131
I0
sg335
I6
sg238
I2
sg327
I2
sg51
I276
sg360
I0
sg95
I0
sg209
I8
sg315
I0
sg63
I65
sg223
I0
sg73
I25
sg229
I8
sg354
I0
sa(dp372
g308
I28
sg285
I22
sg185
I24
sg208
I13
sg371
I2
sg225
I0
sg88
I4
sg189
I0
sg72
I0
sg219
I6
sg58
I25
sg249
I19
sg269
I16
sg10
I53
sg300
I6
sg282
I0
sg304
I0
sg51
I276
sg134
I0
sg13
I2
sg286
I20
sg358
I2
sg15
I170
sg200
I16
sg16
I2
sg17
I6
sS'Hobb'
p373
I1
sg21
I5
sg267
I23
sg167
I6
sg240
I3
sg211
I0
sg194
I71
sg326
I0
sg108
I0
sg201
I3
sg186
I24
sg244
I0
sg191
I0
sg342
I0
sg366
I0
sg136
I2
sg295
I4
sg97
I54
sg195
I16
sg83
I7
sg324
I0
sg99
I30
sg322
I0
sg364
I0
sg231
I0
sg245
I52
sg66
I28
sg196
I0
sg187
I0
sg292
I5
sg262
I44
sg137
I2
sg143
I3
sg89
I16
sg32
I11
sg109
I0
sg202
I0
sg169
I14
sg213
I3
sg214
I0
sg138
I0
sg90
I0
sg155
I25
sS'Dongo'
p374
I0
sg36
I177
sg162
I9
sg170
I66
sg148
I26
sg343
I5
sg110
I215
sg149
I0
sg203
I0
sg177
I124
sg229
I8
sg111
I0
sg344
I0
sg43
I2
sg112
I0
sg156
I2
sg79
I8
sg81
I58
sg45
I0
sg93
I8
sg57
I0
sg301
I33
sg296
I9
sg356
I2
sg345
I0
sg270
I2
sg365
I0
sg289
I0
sg12
I247
sg91
I7
sg259
I28
sg346
I0
sg337
I0
sg113
I0
sg175
I5
sg62
I55
sg232
I7
sg61
I38
sg157
I17
sg271
I2
sg190
I8
sg246
I37
sg133
I0
sg135
I0
sg82
I4
sg235
I103
sg347
I0
sg92
I55
sg40
I118
sg272
I22
sg47
I0
sg367
I2
sg104
I0
sg80
I0
sg161
I2
sg30
I44
sg100
I0
sg84
I77
sg128
I0
sg34
I78
sg75
I0
sg68
I13
sg198
I14
sg273
I7
sg274
I5
sg339
I0
sg35
I269
sg247
I0
sg38
I220
sg359
I0
sg118
I0
sg115
I2
sg18
I89
sg73
I30
sg297
I0
sg248
I52
sg253
I0
sg349
I0
sg151
I0
sg52
I13
sg49
I10
sS'Smitty'
p375
I0
sg250
I1
sg141
I0
sS'Cooper'
p376
I0
sg218
I0
sg260
I33
sg6
I143
sg67
I14
sg76
I9
sg116
I0
sg226
I0
sg7
I19
sg360
I0
sg293
I58
sg107
I0
sg85
I0
sg188
I0
sg101
I2
sg368
I2
sg11
I0
sg158
I15
sg306
I0
sg94
I0
sg307
I0
sg328
I6
sg41
I39
sg197
I94
sg126
I0
sg14
I131
sg318
I0
sg114
I0
sg217
I0
sg338
I6
sg215
I0
sg321
I0
sg261
I21
sg172
I0
sg317
I0
sg78
I22
sg329
I53
sg171
I54
sg33
I20
sg173
I64
sg302
I9
sg59
I17
sg152
I0
sg348
I4
sg309
I2
sg174
I0
sg20
I438
sg120
I0
sg237
I0
sg288
I7
sg102
I45
sg241
I0
sg129
I0
sg242
I0
sg205
I34
sg50
I11
sg276
I0
sg313
I0
sg283
I45
sg160
I4
sg103
I0
sg165
I2
sg264
I3
sg212
I31
sg69
I13
sg353
I16
sg310
I0
sg287
I0
sg305
I0
sg37
I2
sg46
I31
sg204
I49
sg150
I69
sg71
I25
sg39
I32
sg159
I0
sg144
I0
sg227
I0
sg258
I2
sg122
I0
sg257
I43
sg277
I0
sg42
I26
sg251
I0
sg140
I9
sg330
I0
sg2
I0
sg228
I63
sg3
I40
sg362
I0
sg312
I1
sg123
I0
sg86
I51
sg55
I23
sg323
I0
sg351
I0
sg163
I19
sg168
I78
sg178
I6
sg8
I15
sg124
I0
sg9
I263
sg263
I56
sg331
I0
sg314
I0
sg206
I0
sg60
I36
sg311
I0
sg332
I0
sg216
I0
sg192
I33
sg252
I0
sg95
I0
sg179
I10
sg125
I0
sg77
I43
sg119
I0
sg333
I2
sg145
I0
sg316
I0
sg96
I2
sg48
I10
sg19
I275
sg233
I0
sS'Mag'
p377
I0
sg180
I6
sg340
I0
sg181
I0
sg369
I2
sg22
I32
sg23
I322
sg153
I2
sg265
I35
sg370
I0
sg25
I5
sg64
I40
sg56
I2
sg254
I19
sg220
I0
sg182
I0
sg127
I0
sg105
I27
sg290
I30
sg176
I16
sg278
I0
sg27
I7
sg350
I0
sg54
I96
sg5
I165
sg298
I5
sg65
I105
sg334
I0
sg183
I3
sg26
I0
sg207
I181
sg29
I197
sg255
I42
sg31
I11
sg164
I0
sg139
I0
sg24
I58
sg146
I0
sg4
I27
sg275
I0
sg279
I7
sg130
I0
sg70
I2
sg121
I0
sg266
I19
sg221
I3
sg131
I0
sg335
I18
sg142
I16
sg238
I2
sg327
I6
sg222
I11
sg28
I290
sg117
I2
sg209
I8
sg315
I0
sg63
I65
sg223
I0
sg319
I0
sg280
I17
sg354
I0
sa(dp378
S'Leaf'
p379
I0
sS'Ternesio'
p380
I0
sS'Three-eyed'
p381
I0
sg339
I0
sg321
I0
sS'Kullback'
p382
I0
sg282
I0
sg47
I0
sg20
I481
sg194
I73
sg62
I55
sg264
I3
sg99
I30
sg364
I0
sg28
I301
sg225
I0
sg202
I0
sg213
I3
sg170
I69
sg23
I361
sg111
I0
sg46
I31
sg345
I0
sg12
I247
sg232
I7
sg246
I43
sg366
I0
sg347
I0
sg367
I2
sg302
I9
sg100
I0
sg35
I271
sg247
I0
sg359
I0
sg52
I13
sg305
I0
sg6
I143
sg226
I0
sg188
I0
sg117
I2
sg118
I0
sg312
I1
sg308
I28
sg159
I0
sg176
I16
sg242
I0
sg205
I34
sg15
I186
sg263
I56
sg37
I2
sg227
I0
sg122
I0
sg218
I0
sg2
I0
sg124
I0
sg235
I103
sg331
I0
sg266
I19
sg253
I0
sg333
I2
sg48
I10
sg233
I0
sg180
I6
sg79
I8
sg370
I0
sg64
I48
sg254
I19
sg182
I0
sg127
I0
sg105
I27
sg128
I0
sg278
I0
sg27
I7
sg145
I0
sg183
I3
sg29
I212
sg255
I46
sg31
I11
sg164
I0
sg34
I78
sg41
I39
sg371
I2
sg70
I2
sg51
I279
sg73
I36
sg285
I22
sg296
I9
sg219
I6
sg58
I25
sg249
I28
sg269
I16
sg10
I57
sg300
I6
sg304
I0
sg324
I0
sg167
I6
sg240
I3
sg212
I35
sg342
I0
sg136
I2
sg56
I2
sg195
I16
sg65
I111
sg85
I0
sg360
I0
sg89
I16
sg32
I11
sg109
I0
sg169
I16
sg36
I180
sg148
I26
sg343
I5
sS'Fennesz'
p383
I10
sg344
I0
sg43
I2
sg156
I2
sg45
I0
sg323
I0
sg365
I0
sg91
I7
sg259
I28
sg126
I0
sg135
I0
sg92
I58
sg272
I22
sg140
I9
sg38
I235
sg248
I53
sg165
I4
sg151
I0
sg250
I1
sg376
I0
sS'Zalla'
p384
I2
sg67
I14
sg76
I9
sg171
I54
sg293
I66
sg101
I2
sg368
I2
sg14
I131
sg78
I22
sg329
I55
sg173
I70
sg174
I0
sg175
I5
sg216
I0
sg283
I45
sg103
I0
sg262
I46
sg353
I20
sg162
I9
sg289
I0
sg330
I0
sg362
I0
sg5
I165
sg59
I17
sg313
I0
sg314
I0
sg369
I2
sg179
I10
sg198
I14
sg316
I0
sg96
I2
sg19
I277
sg317
I0
sg153
I2
sg267
I23
sg81
I58
sg82
I4
sg207
I192
sg94
I0
sg33
I20
sg146
I0
sg130
I0
sg221
I3
sg319
I0
sg229
I9
sg222
I11
sg340
I0
sg209
I8
sg88
I4
sg13
I2
sg286
I22
sg358
I2
sg16
I2
sg17
I6
sg211
I0
sg217
I0
sg326
I0
sg108
I0
sg201
I3
sg186
I24
sg295
I4
sg97
I58
sg83
I7
sg322
I0
sg292
I5
sg138
I0
sg110
I244
sg374
I0
sg203
I0
sg356
I2
sg55
I24
sg346
I0
sg337
I0
sg133
I0
sg49
I10
sg114
I0
sg80
I0
sg84
I77
sg348
I4
sg115
I2
sg297
I0
sg275
I0
sg375
I0
sg260
I33
sg75
I0
sg143
I3
sg7
I19
sg11
I0
sg158
I18
sg197
I108
sg338
I6
sg102
I45
sg261
I31
sg172
I0
sg152
I0
sg237
I0
sg288
I7
sg350
I0
sg121
I0
sg50
I11
sg160
I4
sg161
I4
sg69
I15
sg71
I29
sg39
I37
sg144
I0
sg228
I69
sg3
I40
sg4
I27
sg54
I96
sg86
I57
sg351
I0
sg168
I78
sg8
I15
sg332
I0
sg192
I38
sg252
I0
sg125
I0
sg77
I45
sg181
I0
sg206
I0
sg22
I32
sg104
I0
sg290
I33
sg298
I5
sg129
I0
sg279
I7
sg280
I17
sg354
I0
sg185
I24
sg90
I0
sg134
I0
sg107
I0
sg200
I16
sg373
I1
sg21
I5
sg257
I43
sg244
I0
sg191
I0
sg327
I6
sg60
I36
sg315
I0
sg220
I0
sg231
I0
sg66
I28
sg196
I0
sg187
I0
sg137
I2
sg214
I0
sg155
I28
sg177
I136
sg149
I0
sg40
I118
sg349
I0
sg112
I0
sg63
I67
sg93
I8
sg57
I0
sg301
I33
sg189
I0
sg270
I2
sg245
I84
sg113
I0
sg61
I38
sg157
I17
sg271
I2
sg287
I0
sg68
I13
sg273
I7
sg274
I5
sg18
I94
sg72
I0
sg142
I16
sg116
I0
sg150
I74
sg306
I0
sg307
I0
sg328
I6
sg141
I0
sg215
I0
sS'Child'
p385
I0
sg204
I49
sg119
I0
sg309
I2
sg25
I5
sg120
I0
sg26
I0
sg241
I0
sg276
I0
sg310
I0
sg190
I8
sg258
I6
sg277
I0
sg251
I0
sg311
I0
sg123
I0
sg163
I19
sg178
I6
sg95
I0
sg9
I278
sg238
I2
sg377
I3
sg265
I47
sg318
I0
sg334
I0
sg30
I44
sg208
I13
sg139
I0
sg24
I61
sg42
I28
sg131
I0
sg335
I18
sg223
I0
sa.