(lp0
(lp1
S'Waymar Royce'
p2
aS'Gared'
p3
aS'Will'
p4
aS'Jon Arryn'
p5
aa(lp6
S'Catspaw assassin'
p7
aS'Mycah'
p8
aS'Lady'
p9
aa(lp10
a(lp11
S'Hugh'
p12
aa(lp13
S'Kurleket'
p14
aS'Willis Wode'
p15
aS'Jory Cassel'
p16
aS'Wyl'
p17
aS'Heward'
p18
aa(lp19
S'Stiv'
p20
aS'Wallen'
p21
aS'Vardis Egen'
p22
aS'Viserys Targaryen'
p23
aa(lp24
S'Robert Baratheon'
p25
aS'Varly'
p26
aa(lp27
S'Vayon Poole'
p28
aS'Mordane'
p29
aS'Fire and Blood'
p30
aS'Syrio Forel'
p31
aS'Mago'
p32
aS'Jafer Flowers'
p33
aS'Othor'
p34
aS'Stableboy'
p35
aa(lp36
S'Eddard Stark'
p37
aS'Qotho'
p38
aa(lp39
S'Rhaego'
p40
aS'Drogo'
p41
aS'Mirri Maz Duur'
p42
aa(lp43
S'Cressen'
p44
aS'Barra'
p45
aa(lp46
S'Rakharo'
p47
aa(lp48
S'Yoren'
p49
aS'Lommy Greenhands'
p50
aa(lp51
S'Rennick'
p52
aS'Lannister guardsman'
p53
aS'Tortured prisoner'
p54
aS'Stafford Lannister'
p55
aa(lp56
S'Renly Baratheon'
p57
aS'Emmon Cuy'
p58
aS'Robar Royce'
p59
aS'The Tickler'
p60
aa(lp61
S'Rodrik Cassel'
p62
aS'High Septon'
p63
aS'Amory Lorch'
p64
aS'Drennan'
p65
aS'Irri'
p66
aa(lp67
S'Alton Lannister'
p68
aS'Torrhen Karstark'
p69
aS'the Thirteen'
p70
aS'Spice King'
p71
aS'Silk King'
p72
aS'Copper King'
p73
aS'Billy'
p74
aS'Jack'
p75
aa(lp76
S'Borba'
p77
aS'Harker'
p78
aS'Stonesnake'
p79
aa(lp80
S'Matthos Seaworth'
p81
aS'Mandon Moore'
p82
aa(lp83
S'Maester'
p84
aS'Luwin'
p85
aS'Doreah'
p86
aS'Xaro Xhoan Daxos'
p87
aS'Qhorin Halfhand'
p88
aS'Pyat Pree'
p89
aS'Tom'
p90
aa(lp91
a(lp92
S'Hoster Tully'
p93
aa(lp94
S'Master Torturer'
p95
aa(lp96
S'Bannen'
p97
aS'Craster'
p98
aS'Jeor Mormont'
p99
aS'Kraznys mo Nakloz'
p100
aS'Greizhen mo Ullhor'
p101
aa(lp102
S'Willem Lannister'
p103
aS'Martyn Lannister'
p104
aS'Karstark lookout'
p105
aS'Rickard Karstark'
p106
aa(lp107
S'Ros'
p108
aa(lp109
a(lp110
S'Mero'
p111
aS'Prendahl na Ghezn'
p112
aS'White Walker'
p113
aa(lp114
S'Old man'
p115
aS'Orell'
p116
aS'Talisa Stark'
p117
aS'Wendel Manderly'
p118
aS'Grey Wind'
p119
aS'Robb Stark'
p120
aS'Joyeuse Erenford'
p121
aS'Catelyn Stark'
p122
aa(lp123
S'Frey soldier #1'
p124
aS'Frey soldier #2'
p125
aa(lp126
S'Lowell'
p127
aS'Polliver'
p128
aa(lp129
S'Tansy'
p130
aS'Axell Florent'
p131
aS'Joffrey Baratheon'
p132
aa(lp133
S' Dontos Hollard'
p134
aS'Guymon'
p135
aS"Olly's mother"
p136
aS'Oznak zo Pahl'
p137
aa(lp138
S'Great Master 1'
p139
aa(lp140
S'Mutineers'
p141
aS'Karl'
p142
aS'Rast'
p143
aS'Black Brothers'
p144
aS'Locke'
p145
aa(lp146
a(lp147
S'Dying man'
p148
aS'Biter'
p149
aS'Rorge'
p150
aS'Lysa Arryn'
p151
aa(lp152
S'Kegs'
p153
aS'Black Jack Bulwer'
p154
aS'Mully'
p155
aS"Mole's Town whore"
p156
aS'Ralf Kenning'
p157
aS'Adrack Humble'
p158
aS'Oberyn Martell'
p159
aa(lp160
S'Dongo'
p161
aS'Smitty'
p162
aS'Pypar'
p163
aS'Thenn Warg'
p164
aS'Styr'
p165
aS'Ygritte'
p166
aS'Mag Mar Tun Doh Weg'
p167
aS'Grenn'
p168
aS'Cooper'
p169
aS'Donnel Hill'
p170
aa(lp171
S'Zalla'
p172
aS'Jojen Reed'
p173
aS'Shae'
p174
aS'Tywin Lannister'
p175
aa.